 CusakisME4901arcs2_sfun

 Timestamp is 531a3797 (Fri Mar 07 13:18:15 2014)

 Preferred load address is 10000000

 Start         Length     Name                   Class
 0001:00000000 00122a24H .text                   CODE
 0002:00000000 0000027cH .idata$5                DATA
 0002:0000027c 00000004H .CRT$XCA                DATA
 0002:00000280 00000004H .CRT$XCZ                DATA
 0002:00000284 00000004H .CRT$XIA                DATA
 0002:00000288 00000004H .CRT$XIAA               DATA
 0002:0000028c 00000004H .CRT$XIC                DATA
 0002:00000290 00000004H .CRT$XIZ                DATA
 0002:00000298 00004a08H .rdata                  DATA
 0002:00004ca0 00000004H .rdata$sxdata           DATA
 0002:00004ca4 00000004H .rtc$IAA                DATA
 0002:00004ca8 00000004H .rtc$IZZ                DATA
 0002:00004cac 00000004H .rtc$TAA                DATA
 0002:00004cb0 00000004H .rtc$TZZ                DATA
 0002:00004cb8 00000064H .xdata$x                DATA
 0002:00004d1c 000000b4H .idata$2                DATA
 0002:00004dd0 00000014H .idata$3                DATA
 0002:00004de4 0000027cH .idata$4                DATA
 0002:00005060 00000bb8H .idata$6                DATA
 0002:00005c20 0000005dH .edata                  DATA
 0003:00000000 00034550H .data                   DATA
 0003:00034560 000029a8H .bss                    DATA

  Address         Publics by Value              Rva+Base       Lib:Object

 0000:00000000       __except_list              00000000     <absolute>
 0000:00000001       ___safe_se_handler_count   00000001     <absolute>
 0000:00009876       __ldused                   00009876     <absolute>
 0000:00009876       __fltused                  00009876     <absolute>
 0000:00000000       ___ImageBase               10000000     <linker-defined>
 0001:00000010       _sf_c1_CusakisME4901arcs2_get_eml_resolved_functions_info 10001010 f   c1_CusakisME4901arcs2.obj
 0001:00000a40       _sf_c1_CusakisME4901arcs2_get_check_sum 10001a40 f   c1_CusakisME4901arcs2.obj
 0001:00000aa0       _sf_c1_CusakisME4901arcs2_get_autoinheritance_info 10001aa0 f   c1_CusakisME4901arcs2.obj
 0001:00001120       _sf_c1_CusakisME4901arcs2_third_party_uses_info 10002120 f   c1_CusakisME4901arcs2.obj
 0001:00001140       _sf_internal_get_sim_state_c1_CusakisME4901arcs2 10002140 f   c1_CusakisME4901arcs2.obj
 0001:000014c0       _sf_internal_set_sim_state_c1_CusakisME4901arcs2 100024c0 f   c1_CusakisME4901arcs2.obj
 0001:00001980       _c1_CusakisME4901arcs2_method_dispatcher 10002980 f   c1_CusakisME4901arcs2.obj
 0001:0000fec0       _sf_c2_CusakisME4901arcs2_get_eml_resolved_functions_info 10010ec0 f   c2_CusakisME4901arcs2.obj
 0001:000108a0       _sf_c2_CusakisME4901arcs2_get_check_sum 100118a0 f   c2_CusakisME4901arcs2.obj
 0001:00010900       _sf_c2_CusakisME4901arcs2_get_autoinheritance_info 10011900 f   c2_CusakisME4901arcs2.obj
 0001:00010e50       _sf_c2_CusakisME4901arcs2_third_party_uses_info 10011e50 f   c2_CusakisME4901arcs2.obj
 0001:00010e70       _sf_internal_get_sim_state_c2_CusakisME4901arcs2 10011e70 f   c2_CusakisME4901arcs2.obj
 0001:00011130       _sf_internal_set_sim_state_c2_CusakisME4901arcs2 10012130 f   c2_CusakisME4901arcs2.obj
 0001:000114b0       _c2_CusakisME4901arcs2_method_dispatcher 100124b0 f   c2_CusakisME4901arcs2.obj
 0001:00014860       _sf_c3_CusakisME4901arcs2_get_eml_resolved_functions_info 10015860 f   c3_CusakisME4901arcs2.obj
 0001:00015300       _sf_c3_CusakisME4901arcs2_get_check_sum 10016300 f   c3_CusakisME4901arcs2.obj
 0001:00015360       _sf_c3_CusakisME4901arcs2_get_autoinheritance_info 10016360 f   c3_CusakisME4901arcs2.obj
 0001:000159e0       _sf_c3_CusakisME4901arcs2_third_party_uses_info 100169e0 f   c3_CusakisME4901arcs2.obj
 0001:00015a00       _sf_internal_get_sim_state_c3_CusakisME4901arcs2 10016a00 f   c3_CusakisME4901arcs2.obj
 0001:00015d80       _sf_internal_set_sim_state_c3_CusakisME4901arcs2 10016d80 f   c3_CusakisME4901arcs2.obj
 0001:00016240       _c3_CusakisME4901arcs2_method_dispatcher 10017240 f   c3_CusakisME4901arcs2.obj
 0001:000247a0       _sf_c4_CusakisME4901arcs2_get_eml_resolved_functions_info 100257a0 f   c4_CusakisME4901arcs2.obj
 0001:00025100       _sf_c4_CusakisME4901arcs2_get_check_sum 10026100 f   c4_CusakisME4901arcs2.obj
 0001:00025160       _sf_c4_CusakisME4901arcs2_get_autoinheritance_info 10026160 f   c4_CusakisME4901arcs2.obj
 0001:000256b0       _sf_c4_CusakisME4901arcs2_third_party_uses_info 100266b0 f   c4_CusakisME4901arcs2.obj
 0001:000256d0       _sf_internal_get_sim_state_c4_CusakisME4901arcs2 100266d0 f   c4_CusakisME4901arcs2.obj
 0001:00025990       _sf_internal_set_sim_state_c4_CusakisME4901arcs2 10026990 f   c4_CusakisME4901arcs2.obj
 0001:00025d10       _c4_CusakisME4901arcs2_method_dispatcher 10026d10 f   c4_CusakisME4901arcs2.obj
 0001:00029140       _sf_c5_CusakisME4901arcs2_get_eml_resolved_functions_info 1002a140 f   c5_CusakisME4901arcs2.obj
 0001:00029e30       _sf_c5_CusakisME4901arcs2_get_check_sum 1002ae30 f   c5_CusakisME4901arcs2.obj
 0001:00029e90       _sf_c5_CusakisME4901arcs2_get_autoinheritance_info 1002ae90 f   c5_CusakisME4901arcs2.obj
 0001:0002a3f0       _sf_c5_CusakisME4901arcs2_third_party_uses_info 1002b3f0 f   c5_CusakisME4901arcs2.obj
 0001:0002a410       _sf_internal_get_sim_state_c5_CusakisME4901arcs2 1002b410 f   c5_CusakisME4901arcs2.obj
 0001:0002a6d0       _sf_internal_set_sim_state_c5_CusakisME4901arcs2 1002b6d0 f   c5_CusakisME4901arcs2.obj
 0001:0002aa60       _c5_CusakisME4901arcs2_method_dispatcher 1002ba60 f   c5_CusakisME4901arcs2.obj
 0001:0002e4f0       _sf_c6_CusakisME4901arcs2_get_eml_resolved_functions_info 1002f4f0 f   c6_CusakisME4901arcs2.obj
 0001:0002f190       _sf_c6_CusakisME4901arcs2_get_check_sum 10030190 f   c6_CusakisME4901arcs2.obj
 0001:0002f1f0       _sf_c6_CusakisME4901arcs2_get_autoinheritance_info 100301f0 f   c6_CusakisME4901arcs2.obj
 0001:0002f750       _sf_c6_CusakisME4901arcs2_third_party_uses_info 10030750 f   c6_CusakisME4901arcs2.obj
 0001:0002f770       _sf_internal_get_sim_state_c6_CusakisME4901arcs2 10030770 f   c6_CusakisME4901arcs2.obj
 0001:0002fa30       _sf_internal_set_sim_state_c6_CusakisME4901arcs2 10030a30 f   c6_CusakisME4901arcs2.obj
 0001:0002fdc0       _c6_CusakisME4901arcs2_method_dispatcher 10030dc0 f   c6_CusakisME4901arcs2.obj
 0001:00033850       _sf_c7_CusakisME4901arcs2_get_eml_resolved_functions_info 10034850 f   c7_CusakisME4901arcs2.obj
 0001:000338a0       _sf_c7_CusakisME4901arcs2_get_check_sum 100348a0 f   c7_CusakisME4901arcs2.obj
 0001:00033900       _sf_c7_CusakisME4901arcs2_get_autoinheritance_info 10034900 f   c7_CusakisME4901arcs2.obj
 0001:00033d00       _sf_c7_CusakisME4901arcs2_third_party_uses_info 10034d00 f   c7_CusakisME4901arcs2.obj
 0001:00033d20       _sf_internal_get_sim_state_c7_CusakisME4901arcs2 10034d20 f   c7_CusakisME4901arcs2.obj
 0001:00033fb0       _sf_internal_set_sim_state_c7_CusakisME4901arcs2 10034fb0 f   c7_CusakisME4901arcs2.obj
 0001:000342c0       _c7_CusakisME4901arcs2_method_dispatcher 100352c0 f   c7_CusakisME4901arcs2.obj
 0001:00035b00       _sf_c8_CusakisME4901arcs2_get_eml_resolved_functions_info 10036b00 f   c8_CusakisME4901arcs2.obj
 0001:0003c2b0       _sf_c8_CusakisME4901arcs2_get_check_sum 1003d2b0 f   c8_CusakisME4901arcs2.obj
 0001:0003c310       _sf_c8_CusakisME4901arcs2_get_autoinheritance_info 1003d310 f   c8_CusakisME4901arcs2.obj
 0001:0003ccd0       _sf_c8_CusakisME4901arcs2_third_party_uses_info 1003dcd0 f   c8_CusakisME4901arcs2.obj
 0001:0003ccf0       _sf_internal_get_sim_state_c8_CusakisME4901arcs2 1003dcf0 f   c8_CusakisME4901arcs2.obj
 0001:0003d0b0       _sf_internal_set_sim_state_c8_CusakisME4901arcs2 1003e0b0 f   c8_CusakisME4901arcs2.obj
 0001:0003d570       _c8_CusakisME4901arcs2_method_dispatcher 1003e570 f   c8_CusakisME4901arcs2.obj
 0001:00065970       _sf_c9_CusakisME4901arcs2_get_eml_resolved_functions_info 10066970 f   c9_CusakisME4901arcs2.obj
 0001:000659c0       _sf_c9_CusakisME4901arcs2_get_check_sum 100669c0 f   c9_CusakisME4901arcs2.obj
 0001:00065a20       _sf_c9_CusakisME4901arcs2_get_autoinheritance_info 10066a20 f   c9_CusakisME4901arcs2.obj
 0001:00066050       _sf_c9_CusakisME4901arcs2_third_party_uses_info 10067050 f   c9_CusakisME4901arcs2.obj
 0001:00066070       _sf_internal_get_sim_state_c9_CusakisME4901arcs2 10067070 f   c9_CusakisME4901arcs2.obj
 0001:00066430       _sf_internal_set_sim_state_c9_CusakisME4901arcs2 10067430 f   c9_CusakisME4901arcs2.obj
 0001:000669b0       _c9_CusakisME4901arcs2_method_dispatcher 100679b0 f   c9_CusakisME4901arcs2.obj
 0001:000694f0       _sf_c10_CusakisME4901arcs2_get_eml_resolved_functions_info 1006a4f0 f   c10_CusakisME4901arcs2.obj
 0001:0006b410       _sf_c10_CusakisME4901arcs2_get_check_sum 1006c410 f   c10_CusakisME4901arcs2.obj
 0001:0006b470       _sf_c10_CusakisME4901arcs2_get_autoinheritance_info 1006c470 f   c10_CusakisME4901arcs2.obj
 0001:0006d340       _sf_c10_CusakisME4901arcs2_third_party_uses_info 1006e340 f   c10_CusakisME4901arcs2.obj
 0001:0006d360       _sf_internal_get_sim_state_c10_CusakisME4901arcs2 1006e360 f   c10_CusakisME4901arcs2.obj
 0001:0006df00       _sf_internal_set_sim_state_c10_CusakisME4901arcs2 1006ef00 f   c10_CusakisME4901arcs2.obj
 0001:0006ebc0       _c10_CusakisME4901arcs2_method_dispatcher 1006fbc0 f   c10_CusakisME4901arcs2.obj
 0001:00079990       _sf_c11_CusakisME4901arcs2_get_eml_resolved_functions_info 1007a990 f   c11_CusakisME4901arcs2.obj
 0001:00079c90       _sf_c11_CusakisME4901arcs2_get_check_sum 1007ac90 f   c11_CusakisME4901arcs2.obj
 0001:00079cf0       _sf_c11_CusakisME4901arcs2_get_autoinheritance_info 1007acf0 f   c11_CusakisME4901arcs2.obj
 0001:0007a010       _sf_c11_CusakisME4901arcs2_third_party_uses_info 1007b010 f   c11_CusakisME4901arcs2.obj
 0001:0007a030       _sf_internal_get_sim_state_c11_CusakisME4901arcs2 1007b030 f   c11_CusakisME4901arcs2.obj
 0001:0007a2f0       _sf_internal_set_sim_state_c11_CusakisME4901arcs2 1007b2f0 f   c11_CusakisME4901arcs2.obj
 0001:0007a670       _c11_CusakisME4901arcs2_method_dispatcher 1007b670 f   c11_CusakisME4901arcs2.obj
 0001:0007c3d0       _sf_c12_CusakisME4901arcs2_get_eml_resolved_functions_info 1007d3d0 f   c12_CusakisME4901arcs2.obj
 0001:0007c6d0       _sf_c12_CusakisME4901arcs2_get_check_sum 1007d6d0 f   c12_CusakisME4901arcs2.obj
 0001:0007c730       _sf_c12_CusakisME4901arcs2_get_autoinheritance_info 1007d730 f   c12_CusakisME4901arcs2.obj
 0001:0007ca50       _sf_c12_CusakisME4901arcs2_third_party_uses_info 1007da50 f   c12_CusakisME4901arcs2.obj
 0001:0007ca70       _sf_internal_get_sim_state_c12_CusakisME4901arcs2 1007da70 f   c12_CusakisME4901arcs2.obj
 0001:0007cd80       _sf_internal_set_sim_state_c12_CusakisME4901arcs2 1007dd80 f   c12_CusakisME4901arcs2.obj
 0001:0007d110       _c12_CusakisME4901arcs2_method_dispatcher 1007e110 f   c12_CusakisME4901arcs2.obj
 0001:0007ef00       _sf_c13_CusakisME4901arcs2_get_eml_resolved_functions_info 1007ff00 f   c13_CusakisME4901arcs2.obj
 0001:0007ef50       _sf_c13_CusakisME4901arcs2_get_check_sum 1007ff50 f   c13_CusakisME4901arcs2.obj
 0001:0007efb0       _sf_c13_CusakisME4901arcs2_get_autoinheritance_info 1007ffb0 f   c13_CusakisME4901arcs2.obj
 0001:0007f4c0       _sf_c13_CusakisME4901arcs2_third_party_uses_info 100804c0 f   c13_CusakisME4901arcs2.obj
 0001:0007f4e0       _sf_internal_get_sim_state_c13_CusakisME4901arcs2 100804e0 f   c13_CusakisME4901arcs2.obj
 0001:0007f7a0       _sf_internal_set_sim_state_c13_CusakisME4901arcs2 100807a0 f   c13_CusakisME4901arcs2.obj
 0001:0007fb20       _c13_CusakisME4901arcs2_method_dispatcher 10080b20 f   c13_CusakisME4901arcs2.obj
 0001:000813f0       _sf_c14_CusakisME4901arcs2_get_eml_resolved_functions_info 100823f0 f   c14_CusakisME4901arcs2.obj
 0001:000817f0       _sf_c14_CusakisME4901arcs2_get_check_sum 100827f0 f   c14_CusakisME4901arcs2.obj
 0001:00081850       _sf_c14_CusakisME4901arcs2_get_autoinheritance_info 10082850 f   c14_CusakisME4901arcs2.obj
 0001:00081c60       _sf_c14_CusakisME4901arcs2_third_party_uses_info 10082c60 f   c14_CusakisME4901arcs2.obj
 0001:00081c80       _sf_internal_get_sim_state_c14_CusakisME4901arcs2 10082c80 f   c14_CusakisME4901arcs2.obj
 0001:00081fe0       _sf_internal_set_sim_state_c14_CusakisME4901arcs2 10082fe0 f   c14_CusakisME4901arcs2.obj
 0001:000824b0       _c14_CusakisME4901arcs2_method_dispatcher 100834b0 f   c14_CusakisME4901arcs2.obj
 0001:00083f00       _sf_c15_CusakisME4901arcs2_get_eml_resolved_functions_info 10084f00 f   c15_CusakisME4901arcs2.obj
 0001:00084510       _sf_c15_CusakisME4901arcs2_get_check_sum 10085510 f   c15_CusakisME4901arcs2.obj
 0001:00084570       _sf_c15_CusakisME4901arcs2_get_autoinheritance_info 10085570 f   c15_CusakisME4901arcs2.obj
 0001:00085160       _sf_c15_CusakisME4901arcs2_third_party_uses_info 10086160 f   c15_CusakisME4901arcs2.obj
 0001:00085180       _sf_internal_get_sim_state_c15_CusakisME4901arcs2 10086180 f   c15_CusakisME4901arcs2.obj
 0001:00085590       _sf_internal_set_sim_state_c15_CusakisME4901arcs2 10086590 f   c15_CusakisME4901arcs2.obj
 0001:00085af0       _c15_CusakisME4901arcs2_method_dispatcher 10086af0 f   c15_CusakisME4901arcs2.obj
 0001:0008af60       _sf_c16_CusakisME4901arcs2_get_eml_resolved_functions_info 1008bf60 f   c16_CusakisME4901arcs2.obj
 0001:0008b420       _sf_c16_CusakisME4901arcs2_get_check_sum 1008c420 f   c16_CusakisME4901arcs2.obj
 0001:0008b480       _sf_c16_CusakisME4901arcs2_get_autoinheritance_info 1008c480 f   c16_CusakisME4901arcs2.obj
 0001:0008bdf0       _sf_c16_CusakisME4901arcs2_third_party_uses_info 1008cdf0 f   c16_CusakisME4901arcs2.obj
 0001:0008be10       _sf_internal_get_sim_state_c16_CusakisME4901arcs2 1008ce10 f   c16_CusakisME4901arcs2.obj
 0001:0008c1a0       _sf_internal_set_sim_state_c16_CusakisME4901arcs2 1008d1a0 f   c16_CusakisME4901arcs2.obj
 0001:0008c670       _c16_CusakisME4901arcs2_method_dispatcher 1008d670 f   c16_CusakisME4901arcs2.obj
 0001:0008e710       _sf_c17_CusakisME4901arcs2_get_eml_resolved_functions_info 1008f710 f   c17_CusakisME4901arcs2.obj
 0001:0008e760       _sf_c17_CusakisME4901arcs2_get_check_sum 1008f760 f   c17_CusakisME4901arcs2.obj
 0001:0008e7c0       _sf_c17_CusakisME4901arcs2_get_autoinheritance_info 1008f7c0 f   c17_CusakisME4901arcs2.obj
 0001:0008ebd0       _sf_c17_CusakisME4901arcs2_third_party_uses_info 1008fbd0 f   c17_CusakisME4901arcs2.obj
 0001:0008ebf0       _sf_internal_get_sim_state_c17_CusakisME4901arcs2 1008fbf0 f   c17_CusakisME4901arcs2.obj
 0001:0008eeb0       _sf_internal_set_sim_state_c17_CusakisME4901arcs2 1008feb0 f   c17_CusakisME4901arcs2.obj
 0001:0008f230       _c17_CusakisME4901arcs2_method_dispatcher 10090230 f   c17_CusakisME4901arcs2.obj
 0001:00090880       _sf_c18_CusakisME4901arcs2_get_eml_resolved_functions_info 10091880 f   c18_CusakisME4901arcs2.obj
 0001:000908d0       _sf_c18_CusakisME4901arcs2_get_check_sum 100918d0 f   c18_CusakisME4901arcs2.obj
 0001:00090930       _sf_c18_CusakisME4901arcs2_get_autoinheritance_info 10091930 f   c18_CusakisME4901arcs2.obj
 0001:00091070       _sf_c18_CusakisME4901arcs2_third_party_uses_info 10092070 f   c18_CusakisME4901arcs2.obj
 0001:00091090       _sf_internal_get_sim_state_c18_CusakisME4901arcs2 10092090 f   c18_CusakisME4901arcs2.obj
 0001:00091390       _sf_internal_set_sim_state_c18_CusakisME4901arcs2 10092390 f   c18_CusakisME4901arcs2.obj
 0001:000916e0       _c18_CusakisME4901arcs2_method_dispatcher 100926e0 f   c18_CusakisME4901arcs2.obj
 0001:00093360       _sf_c19_CusakisME4901arcs2_get_eml_resolved_functions_info 10094360 f   c19_CusakisME4901arcs2.obj
 0001:00093d50       _sf_c19_CusakisME4901arcs2_get_check_sum 10094d50 f   c19_CusakisME4901arcs2.obj
 0001:00093db0       _sf_c19_CusakisME4901arcs2_get_autoinheritance_info 10094db0 f   c19_CusakisME4901arcs2.obj
 0001:00094410       _sf_c19_CusakisME4901arcs2_third_party_uses_info 10095410 f   c19_CusakisME4901arcs2.obj
 0001:00094430       _sf_internal_get_sim_state_c19_CusakisME4901arcs2 10095430 f   c19_CusakisME4901arcs2.obj
 0001:000946c0       _sf_internal_set_sim_state_c19_CusakisME4901arcs2 100956c0 f   c19_CusakisME4901arcs2.obj
 0001:000949d0       _c19_CusakisME4901arcs2_method_dispatcher 100959d0 f   c19_CusakisME4901arcs2.obj
 0001:00096f90       _sf_c20_CusakisME4901arcs2_get_eml_resolved_functions_info 10097f90 f   c20_CusakisME4901arcs2.obj
 0001:0009e4b0       _sf_c20_CusakisME4901arcs2_get_check_sum 1009f4b0 f   c20_CusakisME4901arcs2.obj
 0001:0009e510       _sf_c20_CusakisME4901arcs2_get_autoinheritance_info 1009f510 f   c20_CusakisME4901arcs2.obj
 0001:0009f590       _sf_c20_CusakisME4901arcs2_third_party_uses_info 100a0590 f   c20_CusakisME4901arcs2.obj
 0001:0009f5b0       _sf_internal_get_sim_state_c20_CusakisME4901arcs2 100a05b0 f   c20_CusakisME4901arcs2.obj
 0001:0009fab0       _sf_internal_set_sim_state_c20_CusakisME4901arcs2 100a0ab0 f   c20_CusakisME4901arcs2.obj
 0001:000a0140       _c20_CusakisME4901arcs2_method_dispatcher 100a1140 f   c20_CusakisME4901arcs2.obj
 0001:000c9eb0       _sf_c21_CusakisME4901arcs2_get_eml_resolved_functions_info 100caeb0 f   c21_CusakisME4901arcs2.obj
 0001:000ca260       _sf_c21_CusakisME4901arcs2_get_check_sum 100cb260 f   c21_CusakisME4901arcs2.obj
 0001:000ca2c0       _sf_c21_CusakisME4901arcs2_get_autoinheritance_info 100cb2c0 f   c21_CusakisME4901arcs2.obj
 0001:000cad40       _sf_c21_CusakisME4901arcs2_third_party_uses_info 100cbd40 f   c21_CusakisME4901arcs2.obj
 0001:000cad60       _sf_internal_get_sim_state_c21_CusakisME4901arcs2 100cbd60 f   c21_CusakisME4901arcs2.obj
 0001:000cb060       _sf_internal_set_sim_state_c21_CusakisME4901arcs2 100cc060 f   c21_CusakisME4901arcs2.obj
 0001:000cb3b0       _c21_CusakisME4901arcs2_method_dispatcher 100cc3b0 f   c21_CusakisME4901arcs2.obj
 0001:000cd1d0       _sf_c22_CusakisME4901arcs2_get_eml_resolved_functions_info 100ce1d0 f   c22_CusakisME4901arcs2.obj
 0001:000cd660       _sf_c22_CusakisME4901arcs2_get_check_sum 100ce660 f   c22_CusakisME4901arcs2.obj
 0001:000cd6c0       _sf_c22_CusakisME4901arcs2_get_autoinheritance_info 100ce6c0 f   c22_CusakisME4901arcs2.obj
 0001:000cd9e0       _sf_c22_CusakisME4901arcs2_third_party_uses_info 100ce9e0 f   c22_CusakisME4901arcs2.obj
 0001:000cda00       _sf_internal_get_sim_state_c22_CusakisME4901arcs2 100cea00 f   c22_CusakisME4901arcs2.obj
 0001:000cdcc0       _sf_internal_set_sim_state_c22_CusakisME4901arcs2 100cecc0 f   c22_CusakisME4901arcs2.obj
 0001:000ce040       _c22_CusakisME4901arcs2_method_dispatcher 100cf040 f   c22_CusakisME4901arcs2.obj
 0001:000cf690       _sf_c23_CusakisME4901arcs2_get_eml_resolved_functions_info 100d0690 f   c23_CusakisME4901arcs2.obj
 0001:000cfb00       _sf_c23_CusakisME4901arcs2_get_check_sum 100d0b00 f   c23_CusakisME4901arcs2.obj
 0001:000cfb60       _sf_c23_CusakisME4901arcs2_get_autoinheritance_info 100d0b60 f   c23_CusakisME4901arcs2.obj
 0001:000cfe70       _sf_c23_CusakisME4901arcs2_third_party_uses_info 100d0e70 f   c23_CusakisME4901arcs2.obj
 0001:000cfe90       _sf_internal_get_sim_state_c23_CusakisME4901arcs2 100d0e90 f   c23_CusakisME4901arcs2.obj
 0001:000d0120       _sf_internal_set_sim_state_c23_CusakisME4901arcs2 100d1120 f   c23_CusakisME4901arcs2.obj
 0001:000d0430       _c23_CusakisME4901arcs2_method_dispatcher 100d1430 f   c23_CusakisME4901arcs2.obj
 0001:000d1670       _sf_c24_CusakisME4901arcs2_get_eml_resolved_functions_info 100d2670 f   c24_CusakisME4901arcs2.obj
 0001:000d16c0       _sf_c24_CusakisME4901arcs2_get_check_sum 100d26c0 f   c24_CusakisME4901arcs2.obj
 0001:000d1720       _sf_c24_CusakisME4901arcs2_get_autoinheritance_info 100d2720 f   c24_CusakisME4901arcs2.obj
 0001:000d1b20       _sf_c24_CusakisME4901arcs2_third_party_uses_info 100d2b20 f   c24_CusakisME4901arcs2.obj
 0001:000d1b40       _sf_internal_get_sim_state_c24_CusakisME4901arcs2 100d2b40 f   c24_CusakisME4901arcs2.obj
 0001:000d1dd0       _sf_internal_set_sim_state_c24_CusakisME4901arcs2 100d2dd0 f   c24_CusakisME4901arcs2.obj
 0001:000d20e0       _c24_CusakisME4901arcs2_method_dispatcher 100d30e0 f   c24_CusakisME4901arcs2.obj
 0001:000d3910       _sf_c25_CusakisME4901arcs2_get_eml_resolved_functions_info 100d4910 f   c25_CusakisME4901arcs2.obj
 0001:000d3e60       _sf_c25_CusakisME4901arcs2_get_check_sum 100d4e60 f   c25_CusakisME4901arcs2.obj
 0001:000d3ec0       _sf_c25_CusakisME4901arcs2_get_autoinheritance_info 100d4ec0 f   c25_CusakisME4901arcs2.obj
 0001:000d4520       _sf_c25_CusakisME4901arcs2_third_party_uses_info 100d5520 f   c25_CusakisME4901arcs2.obj
 0001:000d4540       _sf_internal_get_sim_state_c25_CusakisME4901arcs2 100d5540 f   c25_CusakisME4901arcs2.obj
 0001:000d4800       _sf_internal_set_sim_state_c25_CusakisME4901arcs2 100d5800 f   c25_CusakisME4901arcs2.obj
 0001:000d4b80       _c25_CusakisME4901arcs2_method_dispatcher 100d5b80 f   c25_CusakisME4901arcs2.obj
 0001:000d6900       _sf_c26_CusakisME4901arcs2_get_eml_resolved_functions_info 100d7900 f   c26_CusakisME4901arcs2.obj
 0001:000d6950       _sf_c26_CusakisME4901arcs2_get_check_sum 100d7950 f   c26_CusakisME4901arcs2.obj
 0001:000d69b0       _sf_c26_CusakisME4901arcs2_get_autoinheritance_info 100d79b0 f   c26_CusakisME4901arcs2.obj
 0001:000d6dc0       _sf_c26_CusakisME4901arcs2_third_party_uses_info 100d7dc0 f   c26_CusakisME4901arcs2.obj
 0001:000d6de0       _sf_internal_get_sim_state_c26_CusakisME4901arcs2 100d7de0 f   c26_CusakisME4901arcs2.obj
 0001:000d70a0       _sf_internal_set_sim_state_c26_CusakisME4901arcs2 100d80a0 f   c26_CusakisME4901arcs2.obj
 0001:000d7420       _c26_CusakisME4901arcs2_method_dispatcher 100d8420 f   c26_CusakisME4901arcs2.obj
 0001:000d8b10       _sf_c27_CusakisME4901arcs2_get_eml_resolved_functions_info 100d9b10 f   c27_CusakisME4901arcs2.obj
 0001:000d9050       _sf_c27_CusakisME4901arcs2_get_check_sum 100da050 f   c27_CusakisME4901arcs2.obj
 0001:000d90b0       _sf_c27_CusakisME4901arcs2_get_autoinheritance_info 100da0b0 f   c27_CusakisME4901arcs2.obj
 0001:000d93c0       _sf_c27_CusakisME4901arcs2_third_party_uses_info 100da3c0 f   c27_CusakisME4901arcs2.obj
 0001:000d93e0       _sf_internal_get_sim_state_c27_CusakisME4901arcs2 100da3e0 f   c27_CusakisME4901arcs2.obj
 0001:000d9670       _sf_internal_set_sim_state_c27_CusakisME4901arcs2 100da670 f   c27_CusakisME4901arcs2.obj
 0001:000d9980       _c27_CusakisME4901arcs2_method_dispatcher 100da980 f   c27_CusakisME4901arcs2.obj
 0001:000dabd0       _sf_c28_CusakisME4901arcs2_get_eml_resolved_functions_info 100dbbd0 f   c28_CusakisME4901arcs2.obj
 0001:000db130       _sf_c28_CusakisME4901arcs2_get_check_sum 100dc130 f   c28_CusakisME4901arcs2.obj
 0001:000db190       _sf_c28_CusakisME4901arcs2_get_autoinheritance_info 100dc190 f   c28_CusakisME4901arcs2.obj
 0001:000db4a0       _sf_c28_CusakisME4901arcs2_third_party_uses_info 100dc4a0 f   c28_CusakisME4901arcs2.obj
 0001:000db4c0       _sf_internal_get_sim_state_c28_CusakisME4901arcs2 100dc4c0 f   c28_CusakisME4901arcs2.obj
 0001:000db750       _sf_internal_set_sim_state_c28_CusakisME4901arcs2 100dc750 f   c28_CusakisME4901arcs2.obj
 0001:000dba60       _c28_CusakisME4901arcs2_method_dispatcher 100dca60 f   c28_CusakisME4901arcs2.obj
 0001:000dccb0       _sf_c29_CusakisME4901arcs2_get_eml_resolved_functions_info 100ddcb0 f   c29_CusakisME4901arcs2.obj
 0001:000dd1e0       _sf_c29_CusakisME4901arcs2_get_check_sum 100de1e0 f   c29_CusakisME4901arcs2.obj
 0001:000dd240       _sf_c29_CusakisME4901arcs2_get_autoinheritance_info 100de240 f   c29_CusakisME4901arcs2.obj
 0001:000dd550       _sf_c29_CusakisME4901arcs2_third_party_uses_info 100de550 f   c29_CusakisME4901arcs2.obj
 0001:000dd570       _sf_internal_get_sim_state_c29_CusakisME4901arcs2 100de570 f   c29_CusakisME4901arcs2.obj
 0001:000dd800       _sf_internal_set_sim_state_c29_CusakisME4901arcs2 100de800 f   c29_CusakisME4901arcs2.obj
 0001:000ddb10       _c29_CusakisME4901arcs2_method_dispatcher 100deb10 f   c29_CusakisME4901arcs2.obj
 0001:000ded50       _sf_c30_CusakisME4901arcs2_get_eml_resolved_functions_info 100dfd50 f   c30_CusakisME4901arcs2.obj
 0001:000df2b0       _sf_c30_CusakisME4901arcs2_get_check_sum 100e02b0 f   c30_CusakisME4901arcs2.obj
 0001:000df310       _sf_c30_CusakisME4901arcs2_get_autoinheritance_info 100e0310 f   c30_CusakisME4901arcs2.obj
 0001:000df620       _sf_c30_CusakisME4901arcs2_third_party_uses_info 100e0620 f   c30_CusakisME4901arcs2.obj
 0001:000df640       _sf_internal_get_sim_state_c30_CusakisME4901arcs2 100e0640 f   c30_CusakisME4901arcs2.obj
 0001:000df8d0       _sf_internal_set_sim_state_c30_CusakisME4901arcs2 100e08d0 f   c30_CusakisME4901arcs2.obj
 0001:000dfbe0       _c30_CusakisME4901arcs2_method_dispatcher 100e0be0 f   c30_CusakisME4901arcs2.obj
 0001:000e0e20       _sf_c31_CusakisME4901arcs2_get_eml_resolved_functions_info 100e1e20 f   c31_CusakisME4901arcs2.obj
 0001:000e1410       _sf_c31_CusakisME4901arcs2_get_check_sum 100e2410 f   c31_CusakisME4901arcs2.obj
 0001:000e1470       _sf_c31_CusakisME4901arcs2_get_autoinheritance_info 100e2470 f   c31_CusakisME4901arcs2.obj
 0001:000e2900       _sf_c31_CusakisME4901arcs2_third_party_uses_info 100e3900 f   c31_CusakisME4901arcs2.obj
 0001:000e2920       _sf_internal_get_sim_state_c31_CusakisME4901arcs2 100e3920 f   c31_CusakisME4901arcs2.obj
 0001:000e30a0       _sf_internal_set_sim_state_c31_CusakisME4901arcs2 100e40a0 f   c31_CusakisME4901arcs2.obj
 0001:000e35e0       _c31_CusakisME4901arcs2_method_dispatcher 100e45e0 f   c31_CusakisME4901arcs2.obj
 0001:000e6f20       _sf_c32_CusakisME4901arcs2_get_eml_resolved_functions_info 100e7f20 f   c32_CusakisME4901arcs2.obj
 0001:000e7a20       _sf_c32_CusakisME4901arcs2_get_check_sum 100e8a20 f   c32_CusakisME4901arcs2.obj
 0001:000e7a80       _sf_c32_CusakisME4901arcs2_get_autoinheritance_info 100e8a80 f   c32_CusakisME4901arcs2.obj
 0001:000e7da0       _sf_c32_CusakisME4901arcs2_third_party_uses_info 100e8da0 f   c32_CusakisME4901arcs2.obj
 0001:000e7dc0       _sf_internal_get_sim_state_c32_CusakisME4901arcs2 100e8dc0 f   c32_CusakisME4901arcs2.obj
 0001:000e8050       _sf_internal_set_sim_state_c32_CusakisME4901arcs2 100e9050 f   c32_CusakisME4901arcs2.obj
 0001:000e82c0       _c32_CusakisME4901arcs2_method_dispatcher 100e92c0 f   c32_CusakisME4901arcs2.obj
 0001:000e9dd0       _sf_c33_CusakisME4901arcs2_get_eml_resolved_functions_info 100eadd0 f   c33_CusakisME4901arcs2.obj
 0001:000ea310       _sf_c33_CusakisME4901arcs2_get_check_sum 100eb310 f   c33_CusakisME4901arcs2.obj
 0001:000ea370       _sf_c33_CusakisME4901arcs2_get_autoinheritance_info 100eb370 f   c33_CusakisME4901arcs2.obj
 0001:000ea680       _sf_c33_CusakisME4901arcs2_third_party_uses_info 100eb680 f   c33_CusakisME4901arcs2.obj
 0001:000ea6a0       _sf_internal_get_sim_state_c33_CusakisME4901arcs2 100eb6a0 f   c33_CusakisME4901arcs2.obj
 0001:000ea930       _sf_internal_set_sim_state_c33_CusakisME4901arcs2 100eb930 f   c33_CusakisME4901arcs2.obj
 0001:000eaba0       _c33_CusakisME4901arcs2_method_dispatcher 100ebba0 f   c33_CusakisME4901arcs2.obj
 0001:000ec230       _sf_c34_CusakisME4901arcs2_get_eml_resolved_functions_info 100ed230 f   c34_CusakisME4901arcs2.obj
 0001:000ec7d0       _sf_c34_CusakisME4901arcs2_get_check_sum 100ed7d0 f   c34_CusakisME4901arcs2.obj
 0001:000ec830       _sf_c34_CusakisME4901arcs2_get_autoinheritance_info 100ed830 f   c34_CusakisME4901arcs2.obj
 0001:000ecf60       _sf_c34_CusakisME4901arcs2_third_party_uses_info 100edf60 f   c34_CusakisME4901arcs2.obj
 0001:000ecf80       _sf_internal_get_sim_state_c34_CusakisME4901arcs2 100edf80 f   c34_CusakisME4901arcs2.obj
 0001:000ed350       _sf_internal_set_sim_state_c34_CusakisME4901arcs2 100ee350 f   c34_CusakisME4901arcs2.obj
 0001:000ed680       _c34_CusakisME4901arcs2_method_dispatcher 100ee680 f   c34_CusakisME4901arcs2.obj
 0001:000ef590       _sf_c35_CusakisME4901arcs2_get_eml_resolved_functions_info 100f0590 f   c35_CusakisME4901arcs2.obj
 0001:000f05f0       _sf_c35_CusakisME4901arcs2_get_check_sum 100f15f0 f   c35_CusakisME4901arcs2.obj
 0001:000f0650       _sf_c35_CusakisME4901arcs2_get_autoinheritance_info 100f1650 f   c35_CusakisME4901arcs2.obj
 0001:000f1440       _sf_c35_CusakisME4901arcs2_third_party_uses_info 100f2440 f   c35_CusakisME4901arcs2.obj
 0001:000f1460       _sf_internal_get_sim_state_c35_CusakisME4901arcs2 100f2460 f   c35_CusakisME4901arcs2.obj
 0001:000f19b0       _sf_internal_set_sim_state_c35_CusakisME4901arcs2 100f29b0 f   c35_CusakisME4901arcs2.obj
 0001:000f1f20       _c35_CusakisME4901arcs2_method_dispatcher 100f2f20 f   c35_CusakisME4901arcs2.obj
 0001:000f7b30       _sf_process_check_sum_call 100f8b30 f   CusakisME4901arcs2_sfun_registry.obj
 0001:000f7b60       _sf_process_autoinheritance_call 100f8b60 f   CusakisME4901arcs2_sfun_registry.obj
 0001:000f7ca0       _sf_process_get_third_party_uses_info_call 100f8ca0 f   CusakisME4901arcs2_sfun_registry.obj
 0001:000f7de0       _sf_process_get_eml_resolved_functions_info_call 100f8de0 f   CusakisME4901arcs2_sfun_registry.obj
 0001:000f7f00       _sf_mex_unlock_call        100f8f00 f   CusakisME4901arcs2_sfun_registry.obj
 0001:000f7f90       _sf_machine_global_initializer_called 100f8f90 f   CusakisME4901arcs2_sfun_registry.obj
 0001:000f7fb0       _sf_machine_global_method_dispatcher 100f8fb0 f   CusakisME4901arcs2_sfun_registry.obj
 0001:000f7ff0       _sf_machine_global_terminator 100f8ff0 f   CusakisME4901arcs2_sfun_registry.obj
 0001:000f8030       _sf_register_machine_exported_symbols 100f9030 f   CusakisME4901arcs2_sfun_registry.obj
 0001:000f8050       _callCustomFcn             100f9050 f   CusakisME4901arcs2_sfun_registry.obj
 0001:000f8060       _sf_machine_global_initializer 100f9060 f   CusakisME4901arcs2_sfun_registry.obj
 0001:000f80d0       __ssSetStateAbsTol         100f90d0 f   CusakisME4901arcs2_sfun_registry.obj
 0001:000f8170       __ssGetAbsTol              100f9170 f   CusakisME4901arcs2_sfun_registry.obj
 0001:000f81c0       __ssSetInputPortMatrixDimensions 100f91c0 f   CusakisME4901arcs2_sfun_registry.obj
 0001:000f8270       __ssSetOutputPortMatrixDimensions 100f9270 f   CusakisME4901arcs2_sfun_registry.obj
 0001:000f8320       __ssSetInputPortVectorDimension 100f9320 f   CusakisME4901arcs2_sfun_registry.obj
 0001:000f83a0       __ssSetOutputPortVectorDimension 100f93a0 f   CusakisME4901arcs2_sfun_registry.obj
 0001:000f8420       _ssIsRunTimeParamTunable   100f9420 f   CusakisME4901arcs2_sfun_registry.obj
 0001:000f8480       _ssGetSFuncBlockHandle     100f9480 f   CusakisME4901arcs2_sfun_registry.obj
 0001:000f84d0       __ssGetCurrentInputPortWidth 100f94d0 f   CusakisME4901arcs2_sfun_registry.obj
 0001:000f85a0       __ssGetCurrentOutputPortWidth 100f95a0 f   CusakisME4901arcs2_sfun_registry.obj
 0001:000f8670       __ssGetCallSystemNumFcnCallDestinations 100f9670 f   CusakisME4901arcs2_sfun_registry.obj
 0001:000f86d0       _ssWarning                 100f96d0 f   CusakisME4901arcs2_sfun_registry.obj
 0001:000f87b0       _ssGetIsZeroCrossControlDisabled 100f97b0 f   CusakisME4901arcs2_sfun_registry.obj
 0001:000f8810       _ssSetIsInputPortUsedForContZcSignal 100f9810 f   CusakisME4901arcs2_sfun_registry.obj
 0001:000f8860       _ssSetZcSignalIsZcElementDisc 100f9860 f   CusakisME4901arcs2_sfun_registry.obj
 0001:000f88e0       _ssSetZcSignalName         100f98e0 f   CusakisME4901arcs2_sfun_registry.obj
 0001:000f8930       _ssSetZcSignalWidth        100f9930 f   CusakisME4901arcs2_sfun_registry.obj
 0001:000f8980       _ssSetZcSignalZcEventType  100f9980 f   CusakisME4901arcs2_sfun_registry.obj
 0001:000f89d0       _ssSetZcSignalType         100f99d0 f   CusakisME4901arcs2_sfun_registry.obj
 0001:000f8a20       _ssSetZcSignalZcTol        100f9a20 f   CusakisME4901arcs2_sfun_registry.obj
 0001:000f8a70       _ssSetZcSignalNeedsEventNotification 100f9a70 f   CusakisME4901arcs2_sfun_registry.obj
 0001:000f8ac0       _ssCreateAndAddZcSignalInfo 100f9ac0 f   CusakisME4901arcs2_sfun_registry.obj
 0001:000f8b20       _ssCloneAndAddZcSignalInfo 100f9b20 f   CusakisME4901arcs2_sfun_registry.obj
 0001:000f8b80       _ssGetNumZcSignals         100f9b80 f   CusakisME4901arcs2_sfun_registry.obj
 0001:000f8be0       _ssGetZcSignalVector       100f9be0 f   CusakisME4901arcs2_sfun_registry.obj
 0001:000f8c40       _ssGetZcSignalZcEvents     100f9c40 f   CusakisME4901arcs2_sfun_registry.obj
 0001:000f8ca0       _ssGetZcSignalName         100f9ca0 f   CusakisME4901arcs2_sfun_registry.obj
 0001:000f8d00       _ssGetZcSignalWidth        100f9d00 f   CusakisME4901arcs2_sfun_registry.obj
 0001:000f8d60       _ssGetZcSignalZcEventType  100f9d60 f   CusakisME4901arcs2_sfun_registry.obj
 0001:000f8dc0       _ssGetZcSignalType         100f9dc0 f   CusakisME4901arcs2_sfun_registry.obj
 0001:000f8e20       _ssGetZcSignalZcTol        100f9e20 f   CusakisME4901arcs2_sfun_registry.obj
 0001:000f8e80       _ssGetZcSignalNeedsEventNotification 100f9e80 f   CusakisME4901arcs2_sfun_registry.obj
 0001:000f8ee0       _ssGetZcSignalIsZcElementDisc 100f9ee0 f   CusakisME4901arcs2_sfun_registry.obj
 0001:000f8f60       _ssGetIsInputPortElementContinuous 100f9f60 f   CusakisME4901arcs2_sfun_registry.obj
 0001:000f8fe0       __ssGetInputPortSignalPtrsFcn 100f9fe0 f   CusakisME4901arcs2_sfun_registry.obj
 0001:000f91e0       __ssGetInputPortSignalFcn  100fa1e0 f   CusakisME4901arcs2_sfun_registry.obj
 0001:000f9370       __ssSetInputPortDirectFeedThroughFcn 100fa370 f   CusakisME4901arcs2_sfun_registry.obj
 0001:000f94a0       __ssSetInputPortReusableFcn 100fa4a0 f   CusakisME4901arcs2_sfun_registry.obj
 0001:000f9530       __ssSetOutputPortReusableFcn 100fa530 f   CusakisME4901arcs2_sfun_registry.obj
 0001:000f95c0       _ssGetDTypeIdFromMxArray   100fa5c0 f   CusakisME4901arcs2_sfun_registry.obj
 0001:000f96b0       _ssWriteRTWStr             100fa6b0 f   CusakisME4901arcs2_sfun_registry.obj
 0001:000f96f0       _ssWriteRTWMxVectParam     100fa6f0 f   CusakisME4901arcs2_sfun_registry.obj
 0001:000f9730       _ssWriteRTWMx2dMatParam    100fa730 f   CusakisME4901arcs2_sfun_registry.obj
 0001:000f9770       _ssWriteRTWNameValuePair   100fa770 f   CusakisME4901arcs2_sfun_registry.obj
 0001:000f9ae0       _ssWriteRTWParameters      100faae0 f   CusakisME4901arcs2_sfun_registry.obj
 0001:000f9e80       _ssWriteRTWParamSettings   100fae80 f   CusakisME4901arcs2_sfun_registry.obj
 0001:000fa330       _ssWriteRTWWorkVect        100fb330 f   CusakisME4901arcs2_sfun_registry.obj
 0001:000fa6c0       _mexFunction               100fb6c0 f   CusakisME4901arcs2_sfun_registry.obj
 0001:000fbe40       _ProcessMexSfunctionEveryCall 100fce40 f   CusakisME4901arcs2_sfun_registry.obj
 0001:000fbf50       _CusakisME4901arcs2_initializer 100fcf50 f   CusakisME4901arcs2_sfun.obj
 0001:000fbf60       _CusakisME4901arcs2_terminator 100fcf60 f   CusakisME4901arcs2_sfun.obj
 0001:000fbf70       _sf_CusakisME4901arcs2_method_dispatcher 100fcf70 f   CusakisME4901arcs2_sfun.obj
 0001:000fc460       _sf_CusakisME4901arcs2_process_check_sum_call 100fd460 f   CusakisME4901arcs2_sfun.obj
 0001:000fcae0       _sf_CusakisME4901arcs2_autoinheritance_info 100fdae0 f   CusakisME4901arcs2_sfun.obj
 0001:000fd490       _sf_CusakisME4901arcs2_get_eml_resolved_functions_info 100fe490 f   CusakisME4901arcs2_sfun.obj
 0001:000fdca0       _sf_CusakisME4901arcs2_third_party_uses_info 100feca0 f   CusakisME4901arcs2_sfun.obj
 0001:000fe3a0       _CusakisME4901arcs2_debug_initialize 100ff3a0 f   CusakisME4901arcs2_sfun.obj
 0001:000fe400       _CusakisME4901arcs2_register_exported_symbols 100ff400 f   CusakisME4901arcs2_sfun.obj
 0001:000fe410       _load_CusakisME4901arcs2_optimization_info 100ff410 f   CusakisME4901arcs2_sfun.obj
 0001:000fe450       _unload_CusakisME4901arcs2_optimization_info 100ff450 f   CusakisME4901arcs2_sfun.obj
 0001:000fe520       _sf_mex_mx_is_numeric      100ff520 f   sfc_mexmsvc80:sfc_mex.obj
 0001:000fe560       _strcmp_ignore_ws          100ff560 f   sfc_mexmsvc80:sfc_mex.obj
 0001:000fe680       _sf_mex_duplicatearraysafe 100ff680 f   sfc_mexmsvc80:sfc_mex.obj
 0001:000fe860       _sf_set_error_debugger_context_message_fcn 100ff860 f   sfc_mexmsvc80:sfc_mex.obj
 0001:000fe880       _sf_set_debugger_matlab_error_fcn 100ff880 f   sfc_mexmsvc80:sfc_mex.obj
 0001:000fe8b0       _sf_set_error_prefix_string 100ff8b0 f   sfc_mexmsvc80:sfc_mex.obj
 0001:000fe8e0       _sf_get_error_prefix_string 100ff8e0 f   sfc_mexmsvc80:sfc_mex.obj
 0001:000fe8f0       _sf_mex_enter_parallel_region 100ff8f0 f   sfc_mexmsvc80:sfc_mex.obj
 0001:000fe900       _sf_mex_exit_parallel_region 100ff900 f   sfc_mexmsvc80:sfc_mex.obj
 0001:000fe910       _sf_get_current_jmp_buf_ptr 100ff910 f   sfc_mexmsvc80:sfc_mex.obj
 0001:000fe920       _sf_set_current_jmp_buf_ptr 100ff920 f   sfc_mexmsvc80:sfc_mex.obj
 0001:000fe930       _sf_mex_set_halt_simulation 100ff930 f   sfc_mexmsvc80:sfc_mex.obj
 0001:000fe940       _sf_mex_get_halt_simulation 100ff940 f   sfc_mexmsvc80:sfc_mex.obj
 0001:000fe950       _sf_mex_clear_error_message 100ff950 f   sfc_mexmsvc80:sfc_mex.obj
 0001:000fe970       _sf_mex_get_error_message_for_read 100ff970 f   sfc_mexmsvc80:sfc_mex.obj
 0001:000fe980       _sf_mex_get_error_message_buffer_length 100ff980 f   sfc_mexmsvc80:sfc_mex.obj
 0001:000fea50       _sf_mex_warning_message    100ffa50 f   sfc_mexmsvc80:sfc_mex.obj
 0001:000feaa0       _sf_mex_v_errbuf_createf   100ffaa0 f   sfc_mexmsvc80:sfc_mex.obj
 0001:000feac0       _sf_mex_errbuf_createf     100ffac0 f   sfc_mexmsvc80:sfc_mex.obj
 0001:000feae0       _sf_mex_v_errbuf_catf      100ffae0 f   sfc_mexmsvc80:sfc_mex.obj
 0001:000feb20       _sf_mex_errbuf_catf        100ffb20 f   sfc_mexmsvc80:sfc_mex.obj
 0001:000feb60       _sf_mex_errbuf_copy        100ffb60 f   sfc_mexmsvc80:sfc_mex.obj
 0001:000feb80       _sf_mex_errbuf_clear       100ffb80 f   sfc_mexmsvc80:sfc_mex.obj
 0001:000feb90       _sf_mex_errbuf_isempty     100ffb90 f   sfc_mexmsvc80:sfc_mex.obj
 0001:000fec20       _sf_mex_set_error_status   100ffc20 f   sfc_mexmsvc80:sfc_mex.obj
 0001:000fec50       _sf_mex_error_direct_call  100ffc50 f   sfc_mexmsvc80:sfc_mex.obj
 0001:000fec70       _sf_mex_error_message_no_long_jump 100ffc70 f   sfc_mexmsvc80:sfc_mex.obj
 0001:000feca0       _sf_mex_long_jump_on_error 100ffca0 f   sfc_mexmsvc80:sfc_mex.obj
 0001:000fecd0       _sf_mex_call_matlab        100ffcd0 f   sfc_mexmsvc80:sfc_mex.obj
 0001:000feda0       _sf_mex_check_builtin      100ffda0 f   sfc_mexmsvc80:sfc_mex.obj
 0001:000fee00       _sf_mex_check_builtin_vs   100ffe00 f   sfc_mexmsvc80:sfc_mex.obj
 0001:000fee60       _sf_mex_check_enum         100ffe60 f   sfc_mexmsvc80:sfc_mex.obj
 0001:000feeb0       _sf_mex_create_enum        100ffeb0 f   sfc_mexmsvc80:sfc_mex.obj
 0001:000fef00       _sf_mex_get_enum_element   100fff00 f   sfc_mexmsvc80:sfc_mex.obj
 0001:000fef10       _sf_mex_createcellarray    100fff10 f   sfc_mexmsvc80:sfc_mex.obj
 0001:000fef30       _sf_mex_setcell            100fff30 f   sfc_mexmsvc80:sfc_mex.obj
 0001:000fef40       _sf_mex_getcell            100fff40 f   sfc_mexmsvc80:sfc_mex.obj
 0001:000fef50       _sf_mex_dup                100fff50 f   sfc_mexmsvc80:sfc_mex.obj
 0001:000fef80       _sf_mex_assign             100fff80 f   sfc_mexmsvc80:sfc_mex.obj
 0001:000fefd0       _sf_mex_destroy            100fffd0 f   sfc_mexmsvc80:sfc_mex.obj
 0001:000ff000       _mx_array_has_fi_type      10100000 f   sfc_mexmsvc80:sfc_mex.obj
 0001:000ff030       _sf_mex_convert_from_fi    10100030 f   sfc_mexmsvc80:sfc_mex.obj
 0001:000ff110       _sf_mex_convert_to_double  10100110 f   sfc_mexmsvc80:sfc_mex.obj
 0001:000ff150       _sf_mex_import_fi_vs       10100150 f   sfc_mexmsvc80:sfc_mex.obj
 0001:000ff2b0       _sf_matrix_matrix_index_ok 101002b0 f   sfc_mexmsvc80:sfc_mex.obj
 0001:000ff320       _sf_vector_vector_index_ok 10100320 f   sfc_mexmsvc80:sfc_mex.obj
 0001:000ff350       _ssGetCurrentInputPortDimensions_wrapper 10100350 f   sfc_mexmsvc80:sfc_mex.obj
 0001:000ff370       _ssGetCurrentOutputPortDimensions_wrapper 10100370 f   sfc_mexmsvc80:sfc_mex.obj
 0001:000ff390       _sf_mex_emlrt_context_is_debug_mode 10100390 f   sfc_mexmsvc80:sfc_mex.obj
 0001:000ff3a0       _sf_mex_emlrt_context_set_debug_mode 101003a0 f   sfc_mexmsvc80:sfc_mex.obj
 0001:000ff3b0       _sf_mex_emlrtNameCapturePostProcessR2012a 101003b0 f   sfc_mexmsvc80:sfc_mex.obj
 0001:000ff410       _sf_clear_error_manager_info 10100410 f   sfc_mexmsvc80:sfc_mex.obj
 0001:000ff460       _sf_mex_stop_simulation_abruptly_wo_error 10100460 f   sfc_mexmsvc80:sfc_mex.obj
 0001:000ff490       _sf_mex_error_message      10100490 f   sfc_mexmsvc80:sfc_mex.obj
 0001:000ff4e0       _sf_react_to_error_in_matlab_call 101004e0 f   sfc_mexmsvc80:sfc_mex.obj
 0001:000ff510       _sf_mex_addfield           10100510 f   sfc_mexmsvc80:sfc_mex.obj
 0001:000ff590       _sf_mex_getfield           10100590 f   sfc_mexmsvc80:sfc_mex.obj
 0001:000ff810       _sf_mex_check_class        10100810 f   sfc_mexmsvc80:sfc_mex.obj
 0001:000ff890       _sf_mex_is_real            10100890 f   sfc_mexmsvc80:sfc_mex.obj
 0001:000ffaa0       _sf_mex_decode_encoded_mx_struct_array 10100aa0 f   sfc_mexmsvc80:sfc_mex.obj
 0001:000ffc40       _sf_mex_lw_bounds_check    10100c40 f   sfc_mexmsvc80:sfc_mex.obj
 0001:000ffc70       _sf_mex_lw_size_eq_check_1d 10100c70 f   sfc_mexmsvc80:sfc_mex.obj
 0001:000ffc90       _sf_mex_lw_size_eq_check_nd 10100c90 f   sfc_mexmsvc80:sfc_mex.obj
 0001:000ffd70       _sf_mex_lw_dim_size_eq_check 10100d70 f   sfc_mexmsvc80:sfc_mex.obj
 0001:000ffda0       _sf_mex_lw_dim_size_geq_check 10100da0 f   sfc_mexmsvc80:sfc_mex.obj
 0001:000ffdd0       _sf_mex_lw_sub_assign_size_check_nd 10100dd0 f   sfc_mexmsvc80:sfc_mex.obj
 0001:000fff00       _sf_mex_lw_runtime_error_msgid 10100f00 f   sfc_mexmsvc80:sfc_mex.obj
 0001:000fffb0       _sf_mex_lw_matrix_matrix_index_check 10100fb0 f   sfc_mexmsvc80:sfc_mex.obj
 0001:000fffe0       _sf_mex_lw_vector_vector_index_check 10100fe0 f   sfc_mexmsvc80:sfc_mex.obj
 0001:00100020       _sf_mex_lw_for_loop_vector_check 10101020 f   sfc_mexmsvc80:sfc_mex.obj
 0001:00100080       _sf_mex_lw_non_negative_check 10101080 f   sfc_mexmsvc80:sfc_mex.obj
 0001:001000b0       _sf_mex_overflow_error     101010b0 f   sfc_mexmsvc80:sfc_mex.obj
 0001:001000c0       _sf_mex_dividebyzero_error 101010c0 f   sfc_mexmsvc80:sfc_mex.obj
 0001:001000d0       _sf_mex_unsafe_enum_error  101010d0 f   sfc_mexmsvc80:sfc_mex.obj
 0001:001000e0       _sf_emlrtErrHandler        101010e0 f   sfc_mexmsvc80:sfc_mex.obj
 0001:001001a0       _sf_mex_size_one_check     101011a0 f   sfc_mexmsvc80:sfc_mex.obj
 0001:001001c0       _sf_mex_printf             101011c0 f   sfc_mexmsvc80:sfc_mex.obj
 0001:001002a0       _sf_mex_check_size         101012a0 f   sfc_mexmsvc80:sfc_mex.obj
 0001:00100520       _sf_mex_check_struct       10101520 f   sfc_mexmsvc80:sfc_mex.obj
 0001:00100770       _sf_mex_check_struct_vs    10101770 f   sfc_mexmsvc80:sfc_mex.obj
 0001:001007b0       _sf_mex_check_fi           101017b0 f   sfc_mexmsvc80:sfc_mex.obj
 0001:00100880       _sf_mex_check_fi_vs        10101880 f   sfc_mexmsvc80:sfc_mex.obj
 0001:001008d0       _sf_echo_expression        101018d0 f   sfc_mexmsvc80:sfc_mex.obj
 0001:00100920       _sf_assertion_failed       10101920 f   sfc_mexmsvc80:sfc_mex.obj
 0001:00100bb0       _sf_mex_evalin             10101bb0 f   sfc_mexmsvc80:sfc_mex.obj
 0001:00100e10       _sf_mex_export             10101e10 f   sfc_mexmsvc80:sfc_mex.obj
 0001:00100ec0       _sf_mex_get_ml_var_no_error 10101ec0 f   sfc_mexmsvc80:sfc_mex.obj
 0001:00101020       _sf_mex_get_ml_var         10102020 f   sfc_mexmsvc80:sfc_mex.obj
 0001:001014f0       _ml_set_element_value_in_array 101024f0 f   sfc_mexmsvc80:sfc_mex.obj
 0001:00102620       _sf_mex_call_impl          10103620 f   sfc_mexmsvc80:sfc_mex.obj
 0001:001029c0       _sf_mex_call_debug         101039c0 f   sfc_mexmsvc80:sfc_mex.obj
 0001:001029e0       _sf_mex_call               101039e0 f   sfc_mexmsvc80:sfc_mex.obj
 0001:001030f0       _sf_mex_createstruct       101040f0 f   sfc_mexmsvc80:sfc_mex.obj
 0001:00103190       _sf_mex_createstructarray  10104190 f   sfc_mexmsvc80:sfc_mex.obj
 0001:001031f0       _sf_mex_get_mx_datatype_from_sf_datatype 101041f0 f   sfc_mexmsvc80:sfc_mex.obj
 0001:00103480       _sf_mex_ml_var_sub         10104480 f   sfc_mexmsvc80:sfc_mex.obj
 0001:001035f0       _sf_mex_ml_var_subsasgn    101045f0 f   sfc_mexmsvc80:sfc_mex.obj
 0001:00103900       _sf_mex_sub                10104900 f   sfc_mexmsvc80:sfc_mex.obj
 0001:00103aa0       _sf_mex_subsasgn           10104aa0 f   sfc_mexmsvc80:sfc_mex.obj
 0001:00103e90       _sf_mex_create             10104e90 f   sfc_mexmsvc80:sfc_mex.obj
 0001:00104780       _sf_mex_import_named       10105780 f   sfc_mexmsvc80:sfc_mex.obj
 0001:001047d0       _sf_mex_import             101057d0 f   sfc_mexmsvc80:sfc_mex.obj
 0001:00104810       _sf_mex_import_vs          10105810 f   sfc_mexmsvc80:sfc_mex.obj
 0001:001048a0       _sf_mex_lower_fixpt_mx_array 101058a0 f   sfc_mexmsvc80:sfc_mex.obj
 0001:00104a70       _sf_send_message_wrapper   10105a70 f   sfc_mexmsvc80:sfc_sf.obj
 0001:00104aa0       _sf_receive_message_wrapper 10105aa0 f   sfc_mexmsvc80:sfc_sf.obj
 0001:00104ae0       _sf_check_out_message_wrapper 10105ae0 f   sfc_mexmsvc80:sfc_sf.obj
 0001:00104b20       _sf_check_in_message_wrapper 10105b20 f   sfc_mexmsvc80:sfc_sf.obj
 0001:00104b60       _sf_no_message_wrapper     10105b60 f   sfc_mexmsvc80:sfc_sf.obj
 0001:00104dd0       _sim_mode_is_rtw_gen       10105dd0 f   sfc_mexmsvc80:sfc_sf.obj
 0001:00104e10       _sim_mode_is_external      10105e10 f   sfc_mexmsvc80:sfc_sf.obj
 0001:00104e30       _sim_mode_is_modelref_sim  10105e30 f   sfc_mexmsvc80:sfc_sf.obj
 0001:00104e60       _mdlInitializeSizes        10105e60 f   sfc_mexmsvc80:sfc_sf.obj
 0001:00104e80       _mdlInitializeSampleTimes  10105e80 f   sfc_mexmsvc80:sfc_sf.obj
 0001:00104ec0       _mdlZeroCrossings          10105ec0 f   sfc_mexmsvc80:sfc_sf.obj
 0001:00104f70       _mdlDerivatives            10105f70 f   sfc_mexmsvc80:sfc_sf.obj
 0001:00105010       _mdl_initialize_conditions_processing 10106010 f   sfc_mexmsvc80:sfc_sf.obj
 0001:00105040       _mdlInitializeConditions   10106040 f   sfc_mexmsvc80:sfc_sf.obj
 0001:001050e0       _mdlGetSimState            101060e0 f   sfc_mexmsvc80:sfc_sf.obj
 0001:00105100       _mdlSetSimState            10106100 f   sfc_mexmsvc80:sfc_sf.obj
 0001:00105120       _mdl_ext_mode_exec_processing 10106120 f   sfc_mexmsvc80:sfc_sf.obj
 0001:00105140       _mdlExtModeExec            10106140 f   sfc_mexmsvc80:sfc_sf.obj
 0001:001052d0       _mdlTerminate              101062d0 f   sfc_mexmsvc80:sfc_sf.obj
 0001:00105330       _mdlRTW                    10106330 f   sfc_mexmsvc80:sfc_sf.obj
 0001:00105360       _mdlSetWorkWidths          10106360 f   sfc_mexmsvc80:sfc_sf.obj
 0001:00105380       _mdlProcessParameters      10106380 f   sfc_mexmsvc80:sfc_sf.obj
 0001:001053a0       _mdl_start_processing      101063a0 f   sfc_mexmsvc80:sfc_sf.obj
 0001:001053f0       _mdlStart                  101063f0 f   sfc_mexmsvc80:sfc_sf.obj
 0001:001054a0       _mdlEnable                 101064a0 f   sfc_mexmsvc80:sfc_sf.obj
 0001:00105550       _mdlDisable                10106550 f   sfc_mexmsvc80:sfc_sf.obj
 0001:001055e0       _sf_get_chart_instance_ptr 101065e0 f   sfc_mexmsvc80:sfc_sf.obj
 0001:00105600       _sf_load_rtw_optimization_info 10106600 f   sfc_mexmsvc80:sfc_sf.obj
 0001:001056a0       _sf_update_buildInfo       101066a0 f   sfc_mexmsvc80:sfc_sf.obj
 0001:00105760       _sf_rtw_info_uint_prop     10106760 f   sfc_mexmsvc80:sfc_sf.obj
 0001:00105880       _sf_is_chart_inlinable     10106880 f   sfc_mexmsvc80:sfc_sf.obj
 0001:001058b0       _sf_mark_output_events_with_multiple_callers 101068b0 f   sfc_mexmsvc80:sfc_sf.obj
 0001:00105a10       _sf_mark_chart_reusable_outputs 10106a10 f   sfc_mexmsvc80:sfc_sf.obj
 0001:00105b70       _sf_mark_chart_expressionable_inputs 10106b70 f   sfc_mexmsvc80:sfc_sf.obj
 0001:00105cd0       _sf_get_subchart_simstruct 10106cd0 f   sfc_mexmsvc80:sfc_sf.obj
 0001:00105d10       _sf_get_fixpt_data_type_id 10106d10 f   sfc_mexmsvc80:sfc_sf.obj
 0001:00105d50       _sf_get_enum_data_type_id  10106d50 f   sfc_mexmsvc80:sfc_sf.obj
 0001:00105d90       _sf_get_param_data_type_id 10106d90 f   sfc_mexmsvc80:sfc_sf.obj
 0001:00105dc0       _sf_mex_listen_for_ctrl_c_force 10106dc0 f   sfc_mexmsvc80:sfc_sf.obj
 0001:00105ec0       _sf_mex_draw_now           10106ec0 f   sfc_mexmsvc80:sfc_sf.obj
 0001:00105f00       _sf_mex_set_debugger_sim_status_listener_fcn 10106f00 f   sfc_mexmsvc80:sfc_sf.obj
 0001:00105f10       _sf_mex_listen_for_ctrl_c  10106f10 f   sfc_mexmsvc80:sfc_sf.obj
 0001:00105fa0       _sf_mex_get_sfun_param     10106fa0 f   sfc_mexmsvc80:sfc_sf.obj
 0001:00105ff0       _sf_get_runtime_param_data 10106ff0 f   sfc_mexmsvc80:sfc_sf.obj
 0001:00106030       _sf_call_output_fcn_call   10107030 f   sfc_mexmsvc80:sfc_sf.obj
 0001:00106150       _sf_call_output_fcn_enable 10107150 f   sfc_mexmsvc80:sfc_sf.obj
 0001:001061d0       _sf_call_output_fcn_disable 101071d0 f   sfc_mexmsvc80:sfc_sf.obj
 0001:00106250       _sf_clear_rtw_identifier   10107250 f   sfc_mexmsvc80:sfc_sf.obj
 0001:00106b40       _sf_set_encoded_dwork_info 10107b40 f   sfc_mexmsvc80:sfc_sf.obj
 0001:00106b80       _sf_get_dwork_info_from_mat_file 10107b80 f   sfc_mexmsvc80:sfc_sf.obj
 0001:00106cd0       _sf_set_rtw_dwork_info     10107cd0 f   sfc_mexmsvc80:sfc_sf.obj
 0001:00106e00       _mdlOutputs                10107e00 f   sfc_mexmsvc80:sfc_sf.obj
 0001:00106ea0       _sf_debug_chart_instance_initialized_quick 10107ea0 f   sfc_debugmsvc80:sfcdebug.obj
 0001:00106f20       _sf_debug_disp             10107f20 f   sfc_debugmsvc80:sfcdebug.obj
 0001:00107120       _sf_debug_data_runtime_size_mismatch_error_check 10108120 f   sfc_debugmsvc80:sfcdebug.obj
 0001:00107170       _sf_debug_try_loading_machine 10108170 f   sfc_debugmsvc80:sfcdebug.obj
 0001:00107250       _sf_debug_reset_current_state_configuration 10108250 f   sfc_debugmsvc80:sfcdebug.obj
 0001:00107290       _sf_debug_store_current_state_configuration 10108290 f   sfc_debugmsvc80:sfcdebug.obj
 0001:001072d0       _sf_debug_restore_previous_state_configuration 101082d0 f   sfc_debugmsvc80:sfcdebug.obj
 0001:00107310       _sf_debug_restore_previous_state_configuration2 10108310 f   sfc_debugmsvc80:sfcdebug.obj
 0001:00107350       _sf_debug_get_event_scope  10108350 f   sfc_debugmsvc80:sfcdebug.obj
 0001:00107470       _use_debugger_step_animation 10108470 f   sfc_debugmsvc80:sfcdebug.obj
 0001:001074a0       _sf_debug_get_script_id    101084a0 f   sfc_debugmsvc80:sfcdebug.obj
 0001:00107530       _sf_debug_set_script_translation 10108530 f   sfc_debugmsvc80:sfcdebug.obj
 0001:00107660       _sf_debug_extract_message_post_receive_info 10108660 f   sfc_debugmsvc80:sfcdebug.obj
 0001:00107720       _sf_debug_get_current_machine_id 10108720 f   sfc_debugmsvc80:sfcdebug.obj
 0001:00107740       _sf_debug_get_current_optional_integer 10108740 f   sfc_debugmsvc80:sfcdebug.obj
 0001:00107750       _sf_debug_get_current_machine_number 10108750 f   sfc_debugmsvc80:sfcdebug.obj
 0001:00107770       _sf_debug_get_current_machine_name 10108770 f   sfc_debugmsvc80:sfcdebug.obj
 0001:00107790       _sf_debug_get_current_chart_id 10108790 f   sfc_debugmsvc80:sfcdebug.obj
 0001:001077d0       _sf_debug_get_current_chart_number 101087d0 f   sfc_debugmsvc80:sfcdebug.obj
 0001:001077e0       _sf_debug_get_current_instance_number 101087e0 f   sfc_debugmsvc80:sfcdebug.obj
 0001:001077f0       _sf_debug_get_current_is_minor_time_step 101087f0 f   sfc_debugmsvc80:sfcdebug.obj
 0001:00107870       _sf_debug_get_current_object_type 10108870 f   sfc_debugmsvc80:sfcdebug.obj
 0001:00107880       _sf_debug_get_current_instance_handle 10108880 f   sfc_debugmsvc80:sfcdebug.obj
 0001:001078e0       _sf_debug_get_current_event_type 101088e0 f   sfc_debugmsvc80:sfcdebug.obj
 0001:001078f0       _sf_debug_get_current_object_id 101088f0 f   sfc_debugmsvc80:sfcdebug.obj
 0001:00107920       _sf_debug_get_current_active_event_type 10108920 f   sfc_debugmsvc80:sfcdebug.obj
 0001:00107930       _sf_debug_get_current_active_event_id 10108930 f   sfc_debugmsvc80:sfcdebug.obj
 0001:00107960       _sf_debug_get_current_tag_type 10108960 f   sfc_debugmsvc80:sfcdebug.obj
 0001:00107970       _sf_debug_get_current_simulation_time 10108970 f   sfc_debugmsvc80:sfcdebug.obj
 0001:00107980       _sf_debug_get_current_coverage_percentage 10108980 f   sfc_debugmsvc80:sfcdebug.obj
 0001:00107990       _sf_debug_current_statement_context 10108990 f   sfc_debugmsvc80:sfcdebug.obj
 0001:00107a20       _sf_debug_get_current_statement_info 10108a20 f   sfc_debugmsvc80:sfcdebug.obj
 0001:00107b70       _sf_debug_terminate_instance 10108b70 f   sfc_debugmsvc80:sfcdebug.obj
 0001:00107e20       _sf_debug_assertion_failed 10108e20 f   sfc_debugmsvc80:sfcdebug.obj
 0001:00107ff0       _sf_debug_create_debug_instance_struct 10108ff0 f   sfc_debugmsvc80:sfcdebug.obj
 0001:00108030       _sf_debug_set_number_of_data_with_change_event_for_machine 10109030 f   sfc_debugmsvc80:sfcdebug.obj
 0001:00108080       _sf_debug_set_machine_event_thresholds 10109080 f   sfc_debugmsvc80:sfcdebug.obj
 0001:001080b0       _sf_debug_set_machine_event_scope 101090b0 f   sfc_debugmsvc80:sfcdebug.obj
 0001:00108100       _sf_debug_set_machine_data_thresholds 10109100 f   sfc_debugmsvc80:sfcdebug.obj
 0001:00108150       _sf_debug_set_machine_data_scope 10109150 f   sfc_debugmsvc80:sfcdebug.obj
 0001:001081e0       _sf_debug_set_machine_data_name 101091e0 f   sfc_debugmsvc80:sfcdebug.obj
 0001:00108230       _sf_debug_set_machine_data_size 10109230 f   sfc_debugmsvc80:sfcdebug.obj
 0001:00108330       _sf_debug_set_machine_data_type 10109330 f   sfc_debugmsvc80:sfcdebug.obj
 0001:00108460       _sf_debug_get_chart_data_number 10109460 f   sfc_debugmsvc80:sfcdebug.obj
 0001:00108490       _sf_debug_get_chart_event_number 10109490 f   sfc_debugmsvc80:sfcdebug.obj
 0001:001084c0       _sf_debug_set_chart_state_info 101094c0 f   sfc_debugmsvc80:sfcdebug.obj
 0001:00108540       _sf_debug_set_chart_decomposition 10109540 f   sfc_debugmsvc80:sfcdebug.obj
 0001:001085b0       _sf_debug_set_chart_substate_count 101095b0 f   sfc_debugmsvc80:sfcdebug.obj
 0001:00108680       _sf_debug_set_chart_substate_index 10109680 f   sfc_debugmsvc80:sfcdebug.obj
 0001:00108700       _sf_debug_set_chart_state_substate_count 10109700 f   sfc_debugmsvc80:sfcdebug.obj
 0001:001087f0       _sf_debug_set_chart_state_substate_index 101097f0 f   sfc_debugmsvc80:sfcdebug.obj
 0001:00108870       _sf_debug_set_number_of_data_with_change_event_for_chart 10109870 f   sfc_debugmsvc80:sfcdebug.obj
 0001:001088f0       _sf_debug_set_number_of_states_with_entry_event_for_chart 101098f0 f   sfc_debugmsvc80:sfcdebug.obj
 0001:00108970       _sf_debug_set_number_of_states_with_exit_event_for_chart 10109970 f   sfc_debugmsvc80:sfcdebug.obj
 0001:001089f0       _sf_debug_set_chart_disable_implicit_casting 101099f0 f   sfc_debugmsvc80:sfcdebug.obj
 0001:00108a60       _sf_debug_set_chart_event_thresholds 10109a60 f   sfc_debugmsvc80:sfcdebug.obj
 0001:00108ae0       _sf_debug_set_chart_data_compiled_props 10109ae0 f   sfc_debugmsvc80:sfcdebug.obj
 0001:00108d60       _sf_debug_set_chart_data_props 10109d60 f   sfc_debugmsvc80:sfcdebug.obj
 0001:00108fe0       _sf_debug_check_fi_license 10109fe0 f   sfc_debugmsvc80:sfcdebug.obj
 0001:00109170       _sf_debug_symbol_scope_push 1010a170 f   sfc_debugmsvc80:sfcdebug.obj
 0001:001091a0       _sf_debug_symbol_scope_push_eml 1010a1a0 f   sfc_debugmsvc80:sfcdebug.obj
 0001:001091e0       _sf_debug_symbol_scope_pop 1010a1e0 f   sfc_debugmsvc80:sfcdebug.obj
 0001:00109220       _sf_debug_symbol_scope_add_importable 1010a220 f   sfc_debugmsvc80:sfcdebug.obj
 0001:00109280       _sf_debug_symbol_scope_add 1010a280 f   sfc_debugmsvc80:sfcdebug.obj
 0001:001092d0       _sf_debug_symbol_scope_add_dyn_importable 1010a2d0 f   sfc_debugmsvc80:sfcdebug.obj
 0001:00109340       _sf_debug_symbol_scope_add_dyn 1010a340 f   sfc_debugmsvc80:sfcdebug.obj
 0001:00109370       _sf_debug_symbol_scope_add_eml_importable 1010a370 f   sfc_debugmsvc80:sfcdebug.obj
 0001:001093a0       _sf_debug_symbol_scope_add_eml 1010a3a0 f   sfc_debugmsvc80:sfcdebug.obj
 0001:001093d0       _sf_debug_symbol_scope_add_eml_dyn_importable 1010a3d0 f   sfc_debugmsvc80:sfcdebug.obj
 0001:00109420       _sf_debug_symbol_scope_add_eml_dyn 1010a420 f   sfc_debugmsvc80:sfcdebug.obj
 0001:00109470       _sf_debug_symbol_switch    1010a470 f   sfc_debugmsvc80:sfcdebug.obj
 0001:00109490       _sf_debug_symbol_scope_add_verbose 1010a490 f   sfc_debugmsvc80:sfcdebug.obj
 0001:00109500       _sf_debug_set_machine_data_value_ptr 1010a500 f   sfc_debugmsvc80:sfcdebug.obj
 0001:00109540       _sf_debug_set_instance_data_value_ptr 1010a540 f   sfc_debugmsvc80:sfcdebug.obj
 0001:001095a0       _sf_debug_unset_instance_data_value_ptr 1010a5a0 f   sfc_debugmsvc80:sfcdebug.obj
 0001:001095f0       _sf_debug_set_chart_event_scope 1010a5f0 f   sfc_debugmsvc80:sfcdebug.obj
 0001:00109670       _sf_debug_set_chart_transition_coverage_maps 1010a670 f   sfc_debugmsvc80:sfcdebug.obj
 0001:00109700       _sf_debug_set_chart_state_coverage_maps 1010a700 f   sfc_debugmsvc80:sfcdebug.obj
 0001:00109780       _sf_debug_set_instance_transition_coverage_weights 1010a780 f   sfc_debugmsvc80:sfcdebug.obj
 0001:001097f0       _sf_debug_set_instance_state_coverage_weights 1010a7f0 f   sfc_debugmsvc80:sfcdebug.obj
 0001:001099f0       _sf_debug_unload_machine   1010a9f0 f   sfc_debugmsvc80:sfcdebug.obj
 0001:00109a40       _sf_debug_load_machine     1010aa40 f   sfc_debugmsvc80:sfcdebug.obj
 0001:00109ae0       _sf_debug_set_active_instance_in_data_dictionary 1010aae0 f   sfc_debugmsvc80:sfcdebug.obj
 0001:00109c60       _sf_debug_set_active_instance 1010ac60 f   sfc_debugmsvc80:sfcdebug.obj
 0001:00109d60       _sf_debug_chart_visiblity_change 1010ad60 f   sfc_debugmsvc80:sfcdebug.obj
 0001:00109e00       _sf_debug_select_chart     1010ae00 f   sfc_debugmsvc80:sfcdebug.obj
 0001:00109ef0       _sf_debug_set_instance_cv_ids 1010aef0 f   sfc_debugmsvc80:sfcdebug.obj
 0001:0010a0b0       _sf_debug_select_charts    1010b0b0 f   sfc_debugmsvc80:sfcdebug.obj
 0001:0010a200       _sf_debug_initialized      1010b200 f   sfc_debugmsvc80:sfcdebug.obj
 0001:0010a220       _sf_debug_is_uninterruptible 1010b220 f   sfc_debugmsvc80:sfcdebug.obj
 0001:0010a260       _sf_debug_initialize_debugger_gui 1010b260 f   sfc_debugmsvc80:sfcdebug.obj
 0001:0010a5f0       _sf_debug_resume           1010b5f0 f   sfc_debugmsvc80:sfcdebug.obj
 0001:0010a620       _sf_debug_go               1010b620 f   sfc_debugmsvc80:sfcdebug.obj
 0001:0010a640       _sf_debug_break            1010b640 f   sfc_debugmsvc80:sfcdebug.obj
 0001:0010a660       _sf_debug_step_over        1010b660 f   sfc_debugmsvc80:sfcdebug.obj
 0001:0010a680       _sf_debug_step_out         1010b680 f   sfc_debugmsvc80:sfcdebug.obj
 0001:0010a6a0       _sf_debug_set_disable_all_breakpoints 1010b6a0 f   sfc_debugmsvc80:sfcdebug.obj
 0001:0010a6c0       _sf_debug_disable_all_breakpoints_and_go 1010b6c0 f   sfc_debugmsvc80:sfcdebug.obj
 0001:0010a6e0       _sf_debug_break_on_chart_entry 1010b6e0 f   sfc_debugmsvc80:sfcdebug.obj
 0001:0010a700       _sf_debug_break_on_event_broadcast 1010b700 f   sfc_debugmsvc80:sfcdebug.obj
 0001:0010a720       _sf_debug_break_on_state_entry 1010b720 f   sfc_debugmsvc80:sfcdebug.obj
 0001:0010a740       _sf_debug_break_between_times 1010b740 f   sfc_debugmsvc80:sfcdebug.obj
 0001:0010a770       _sf_debug_browse_data      1010b770 f   sfc_debugmsvc80:sfcdebug.obj
 0001:0010a780       _sf_debug_watch_data       1010b780 f   sfc_debugmsvc80:sfcdebug.obj
 0001:0010a7b0       _sf_debug_assign_data      1010b7b0 f   sfc_debugmsvc80:sfcdebug.obj
 0001:0010a7c0       _sf_debug_whos             1010b7c0 f   sfc_debugmsvc80:sfcdebug.obj
 0001:0010a7e0       _sf_debug_get_consistency_info 1010b7e0 f   sfc_debugmsvc80:sfcdebug.obj
 0001:0010a7f0       _sf_debug_browse_trace     1010b7f0 f   sfc_debugmsvc80:sfcdebug.obj
 0001:0010a800       _sf_debug_set_breakpoints  1010b800 f   sfc_debugmsvc80:sfcdebug.obj
 0001:0010a8c0       _sf_debug_set_eml_breakpoints 1010b8c0 f   sfc_debugmsvc80:sfcdebug.obj
 0001:0010a9d0       _sf_debug_set_script_breakpoints 1010b9d0 f   sfc_debugmsvc80:sfcdebug.obj
 0001:0010aa50       _sf_debug_add_script_breakpoints 1010ba50 f   sfc_debugmsvc80:sfcdebug.obj
 0001:0010aac0       _sf_debug_clear_script_breakpoints 1010bac0 f   sfc_debugmsvc80:sfcdebug.obj
 0001:0010ab30       _sf_debug_query_script_breakpoints 1010bb30 f   sfc_debugmsvc80:sfcdebug.obj
 0001:0010abc0       _sf_debug_get_eml_script_id 1010bbc0 f   sfc_debugmsvc80:sfcdebug.obj
 0001:0010ac10       _sf_debug_set_watch        1010bc10 f   sfc_debugmsvc80:sfcdebug.obj
 0001:0010ada0       _sf_debug_get_instance_handle 1010bda0 f   sfc_debugmsvc80:sfcdebug.obj
 0001:0010ae20       _sf_debug_get_active_states 1010be20 f   sfc_debugmsvc80:sfcdebug.obj
 0001:0010ae40       _sf_debug_set_honor_breakpoints 1010be40 f   sfc_debugmsvc80:sfcdebug.obj
 0001:0010ae60       _sf_debug_get_animation    1010be60 f   sfc_debugmsvc80:sfcdebug.obj
 0001:0010ae70       _sf_debug_set_animation    1010be70 f   sfc_debugmsvc80:sfcdebug.obj
 0001:0010ae90       _sf_debug_animate          1010be90 f   sfc_debugmsvc80:sfcdebug.obj
 0001:0010aec0       _sf_debug_cycle_detection_check 1010bec0 f   sfc_debugmsvc80:sfcdebug.obj
 0001:0010aee0       _sf_debug_data_range_check 1010bee0 f   sfc_debugmsvc80:sfcdebug.obj
 0001:0010af00       _sf_debug_transition_conflict_check 1010bf00 f   sfc_debugmsvc80:sfcdebug.obj
 0001:0010af20       _sf_debug_state_consistency_check 1010bf20 f   sfc_debugmsvc80:sfcdebug.obj
 0001:0010af40       _sf_debug_data_range_check_enabled 1010bf40 f   sfc_debugmsvc80:sfcdebug.obj
 0001:0010af60       _sf_debug_transition_conflict_check_enabled 1010bf60 f   sfc_debugmsvc80:sfcdebug.obj
 0001:0010af80       _sf_debug_transition_conflict_check_begin 1010bf80 f   sfc_debugmsvc80:sfcdebug.obj
 0001:0010afa0       _sf_debug_transition_conflict_check_end 1010bfa0 f   sfc_debugmsvc80:sfcdebug.obj
 0001:0010afc0       _sf_debug_stop_debugging   1010bfc0 f   sfc_debugmsvc80:sfcdebug.obj
 0001:0010aff0       _sf_debug_is_cycle_detected 1010bff0 f   sfc_debugmsvc80:sfcdebug.obj
 0001:0010b000       _sf_debug_is_array_bounds_detected 1010c000 f   sfc_debugmsvc80:sfcdebug.obj
 0001:0010b010       _sf_debug_get_state_vectors_data_size 1010c010 f   sfc_debugmsvc80:sfcdebug.obj
 0001:0010b060       _sf_debug_get_state_vectors_data 1010c060 f   sfc_debugmsvc80:sfcdebug.obj
 0001:0010b130       _sf_debug_set_state_vectors_data 1010c130 f   sfc_debugmsvc80:sfcdebug.obj
 0001:0010b360       _sf_debug_get_script_index 1010c360 f   sfc_debugmsvc80:sfcdebug.obj
 0001:0010b490       _sf_debug_add_script       1010c490 f   sfc_debugmsvc80:sfcdebug.obj
 0001:0010b5e0       _cv_eval_point             1010c5e0 f   sfc_debugmsvc80:sfcdebug.obj
 0001:0010b6b0       _cv_eval_testobjective     1010c6b0 f   sfc_debugmsvc80:sfcdebug.obj
 0001:0010b770       _sf_debug_cv_init_state    1010c770 f   sfc_debugmsvc80:sfcdebug.obj
 0001:0010b810       _sf_debug_cv_init_chart    1010c810 f   sfc_debugmsvc80:sfcdebug.obj
 0001:0010b890       _sf_debug_cv_init_trans    1010c890 f   sfc_debugmsvc80:sfcdebug.obj
 0001:0010b920       _sf_debug_cv_init_saturation 1010c920 f   sfc_debugmsvc80:sfcdebug.obj
 0001:0010b9c0       _sf_debug_cv_init_testobjectives 1010c9c0 f   sfc_debugmsvc80:sfcdebug.obj
 0001:0010bb00       _cv_eml_init_script        1010cb00 f   sfc_debugmsvc80:sfcdebug.obj
 0001:0010bb90       _cv_eml_init_fcn           1010cb90 f   sfc_debugmsvc80:sfcdebug.obj
 0001:0010bbf0       _cv_eml_init_testobjective 1010cbf0 f   sfc_debugmsvc80:sfcdebug.obj
 0001:0010bc70       _cv_eml_init_saturation    1010cc70 f   sfc_debugmsvc80:sfcdebug.obj
 0001:0010bcf0       _cv_eml_init_if            1010ccf0 f   sfc_debugmsvc80:sfcdebug.obj
 0001:0010bd70       _cv_eml_init_for           1010cd70 f   sfc_debugmsvc80:sfcdebug.obj
 0001:0010bdf0       _cv_eml_init_while         1010cdf0 f   sfc_debugmsvc80:sfcdebug.obj
 0001:0010be70       _cv_eml_init_mcdc          1010ce70 f   sfc_debugmsvc80:sfcdebug.obj
 0001:0010bf00       _cv_eml_init_switch        1010cf00 f   sfc_debugmsvc80:sfcdebug.obj
 0001:0010bf90       _cv_eml_eval               1010cf90 f   sfc_debugmsvc80:sfcdebug.obj
 0001:0010c020       _sf_debug_bm_is_a_eml_breakpoint 1010d020 f   sfc_debugmsvc80:sfcdebug.obj
 0001:0010c150       _sf_debug_temporal_threshold 1010d150 f   sfc_debugmsvc80:sfcdebug.obj
 0001:0010c440       _sf_debug_transition_conflict_error 1010d440 f   sfc_debugmsvc80:sfcdebug.obj
 0001:0010c6e0       _sf_debug_state_inconsistency_error 1010d6e0 f   sfc_debugmsvc80:sfcdebug.obj
 0001:0010c7e0       _sf_debug_check_for_state_inconsistency 1010d7e0 f   sfc_debugmsvc80:sfcdebug.obj
 0001:0010c820       _sf_debug_cycle_detecton_error 1010d820 f   sfc_debugmsvc80:sfcdebug.obj
 0001:0010ce60       _sf_debug_size_eq_check_1d 1010de60 f   sfc_debugmsvc80:sfcdebug.obj
 0001:0010ce90       _sf_debug_size_eq_check_nd 1010de90 f   sfc_debugmsvc80:sfcdebug.obj
 0001:0010cf70       _sf_debug_dim_size_eq_check 1010df70 f   sfc_debugmsvc80:sfcdebug.obj
 0001:0010cfa0       _sf_debug_dim_size_geq_check 1010dfa0 f   sfc_debugmsvc80:sfcdebug.obj
 0001:0010cfd0       _sf_debug_sub_assign_size_check_nd 1010dfd0 f   sfc_debugmsvc80:sfcdebug.obj
 0001:0010d110       _sf_debug_matrix_matrix_index_check 1010e110 f   sfc_debugmsvc80:sfcdebug.obj
 0001:0010d150       _sf_debug_vector_vector_index_check 1010e150 f   sfc_debugmsvc80:sfcdebug.obj
 0001:0010d190       _sf_debug_for_loop_vector_check 1010e190 f   sfc_debugmsvc80:sfcdebug.obj
 0001:0010d1f0       _sf_debug_runtime_error_msgid 1010e1f0 f   sfc_debugmsvc80:sfcdebug.obj
 0001:0010d280       _sf_debug_data_array_bounds_error_check 1010e280 f   sfc_debugmsvc80:sfcdebug.obj
 0001:0010d2f0       _sf_debug_eml_data_array_bounds_error_check 1010e2f0 f   sfc_debugmsvc80:sfcdebug.obj
 0001:0010d5f0       _sf_debug_integer_check    1010e5f0 f   sfc_debugmsvc80:sfcdebug.obj
 0001:0010d670       _sf_debug_not_nan_check    1010e670 f   sfc_debugmsvc80:sfcdebug.obj
 0001:0010d6d0       _sf_debug_non_negative_check 1010e6d0 f   sfc_debugmsvc80:sfcdebug.obj
 0001:0010d730       _sf_debug_overflow_detection 1010e730 f   sfc_debugmsvc80:sfcdebug.obj
 0001:0010dc70       _sf_debug_cast_to_real32_T 1010ec70 f   sfc_debugmsvc80:sfcdebug.obj
 0001:0010dce0       _sf_debug_cast_to_int8_T   1010ece0 f   sfc_debugmsvc80:sfcdebug.obj
 0001:0010dd60       _sf_debug_cast_to_uint8_T  1010ed60 f   sfc_debugmsvc80:sfcdebug.obj
 0001:0010ddf0       _sf_debug_cast_to_int16_T  1010edf0 f   sfc_debugmsvc80:sfcdebug.obj
 0001:0010de70       _sf_debug_cast_to_uint16_T 1010ee70 f   sfc_debugmsvc80:sfcdebug.obj
 0001:0010df10       _sf_debug_cast_to_int32_T  1010ef10 f   sfc_debugmsvc80:sfcdebug.obj
 0001:0010df80       _sf_debug_cast_to_uint32_T 1010ef80 f   sfc_debugmsvc80:sfcdebug.obj
 0001:0010e020       _sf_debug_data_range_error 1010f020 f   sfc_debugmsvc80:sfcdebug.obj
 0001:0010e2a0       _sf_debug_read_before_write_check 1010f2a0 f   sfc_debugmsvc80:sfcdebug.obj
 0001:0010e600       _sf_debug_data_range_error_wrapper_min_max 1010f600 f   sfc_debugmsvc80:sfcdebug.obj
 0001:0010e680       _sf_debug_data_range_error_wrapper_min 1010f680 f   sfc_debugmsvc80:sfcdebug.obj
 0001:0010e6f0       _sf_debug_data_range_error_wrapper_max 1010f6f0 f   sfc_debugmsvc80:sfcdebug.obj
 0001:0010e760       _sf_debug_data_range_wrapper 1010f760 f   sfc_debugmsvc80:sfcdebug.obj
 0001:0010e7b0       _sf_debug_set_current_status_info 1010f7b0 f   sfc_debugmsvc80:sfcdebug.obj
 0001:0010eb10       _sf_debug_register_message_post_receive_info 1010fb10 f   sfc_debugmsvc80:sfcdebug.obj
 0001:0010ecd0       _sf_debug_call             1010fcd0 f   sfc_debugmsvc80:sfcdebug.obj
 0001:0010f4d0       _sf_debug_initialize_machine 101104d0 f   sfc_debugmsvc80:sfcdebug.obj
 0001:0010f750       _sf_debug_initialize_chart 10110750 f   sfc_debugmsvc80:sfcdebug.obj
 0001:0010fa50       _sf_debug_ensure_script    10110a50 f   sfc_debugmsvc80:sfcdebug.obj
 0001:0010faf0       _cv_eval_saturation        10110af0 f   sfc_debugmsvc80:sfcdebug.obj
 0001:0010fbd0       _cv_saturation_accum       10110bd0 f   sfc_debugmsvc80:sfcdebug.obj
 0001:0010fc90       _cv_script_init_script     10110c90 f   sfc_debugmsvc80:sfcdebug.obj
 0001:0010fd00       _cv_script_init_fcn        10110d00 f   sfc_debugmsvc80:sfcdebug.obj
 0001:0010fd60       _cv_script_init_testobjective 10110d60 f   sfc_debugmsvc80:sfcdebug.obj
 0001:0010fdc0       _cv_script_init_saturation 10110dc0 f   sfc_debugmsvc80:sfcdebug.obj
 0001:0010fe20       _cv_script_init_if         10110e20 f   sfc_debugmsvc80:sfcdebug.obj
 0001:0010fe80       _cv_script_init_for        10110e80 f   sfc_debugmsvc80:sfcdebug.obj
 0001:0010fee0       _cv_script_init_while      10110ee0 f   sfc_debugmsvc80:sfcdebug.obj
 0001:0010ff40       _cv_script_init_mcdc       10110f40 f   sfc_debugmsvc80:sfcdebug.obj
 0001:0010ffb0       _cv_script_init_switch     10110fb0 f   sfc_debugmsvc80:sfcdebug.obj
 0001:00110020       _cv_script_eval            10111020 f   sfc_debugmsvc80:sfcdebug.obj
 0001:00110090       _eml_debug_line_call       10111090 f   sfc_debugmsvc80:sfcdebug.obj
 0001:00110180       _sf_debug_terminate        10111180 f   sfc_debugmsvc80:sfcdebug.obj
 0001:001102c0       _sf_debug_set_script_cv_ids 101112c0 f   sfc_debugmsvc80:sfcdebug.obj
 0001:001103c0       _sf_debug_api              101113c0 f   sfc_debugmsvc80:sfc_api.obj
 0001:00111e40       _sf_debug_sm_terminate     10112e40 f   sfc_debugmsvc80:sfdb_animation.obj
 0001:00111fa0       _sf_debug_reset_path_objects 10112fa0 f   sfc_debugmsvc80:sfdb_animation.obj
 0001:00112010       _sf_debug_sm_reset_object_selection_status 10113010 f   sfc_debugmsvc80:sfdb_animation.obj
 0001:001120b0       _sf_debug_sm_reset_state_buffer 101130b0 f   sfc_debugmsvc80:sfdb_animation.obj
 0001:00112170       _sf_debug_sm_store_state_buffer 10113170 f   sfc_debugmsvc80:sfdb_animation.obj
 0001:001121f0       _sf_debug_sm_restore_state_buffer1 101131f0 f   sfc_debugmsvc80:sfdb_animation.obj
 0001:00112250       _sf_debug_sm_restore_state_buffer2 10113250 f   sfc_debugmsvc80:sfdb_animation.obj
 0001:001122b0       _sf_debug_sm_chart_active  101132b0 f   sfc_debugmsvc80:sfdb_animation.obj
 0001:00112300       _sf_debug_sm_select_active_objects 10113300 f   sfc_debugmsvc80:sfdb_animation.obj
 0001:001126c0       _sf_debug_sm_is_chart_active 101136c0 f   sfc_debugmsvc80:sfdb_animation.obj
 0001:00112700       _sf_debug_sm_is_state_active 10113700 f   sfc_debugmsvc80:sfdb_animation.obj
 0001:001128b0       _sf_debug_sm_get_active_states 101138b0 f   sfc_debugmsvc80:sfdb_animation.obj
 0001:00112ce0       _sf_debug_sm_initialize_instance 10113ce0 f   sfc_debugmsvc80:sfdb_animation.obj
 0001:00112ef0       _sf_debug_sm_change_object_selection_status 10113ef0 f   sfc_debugmsvc80:sfdb_animation.obj
 0001:001130e0       _cv_create_interface       101140e0 f   sfc_debugmsvc80:cv_sfinterface.obj
 0001:001133d0       _cv_init_trans             101143d0 f   sfc_debugmsvc80:cv_sfinterface.obj
 0001:00113420       _cv_init_saturation        10114420 f   sfc_debugmsvc80:cv_sfinterface.obj
 0001:00113470       _cv_init_testobjective     10114470 f   sfc_debugmsvc80:cv_sfinterface.obj
 0001:001134c0       _cv_init_state             101144c0 f   sfc_debugmsvc80:cv_sfinterface.obj
 0001:00113520       _cv_init_chart             10114520 f   sfc_debugmsvc80:cv_sfinterface.obj
 0001:00113570       _cv_dec_update_call        10114570 f   sfc_debugmsvc80:cv_sfinterface.obj
 0001:001135b0       _cv_cond_update_call       101145b0 f   sfc_debugmsvc80:cv_sfinterface.obj
 0001:001135f0       _cv_saturation_update_call 101145f0 f   sfc_debugmsvc80:cv_sfinterface.obj
 0001:00113630       _cv_saturation_update_accum 10114630 f   sfc_debugmsvc80:cv_sfinterface.obj
 0001:00113670       _cv_testobjective_update_call 10114670 f   sfc_debugmsvc80:cv_sfinterface.obj
 0001:001136b0       _cv_sigrange_update        101146b0 f   sfc_debugmsvc80:cv_sfinterface.obj
 0001:00113700       _cvsf_eml_eval             10114700 f   sfc_debugmsvc80:cv_sfinterface.obj
 0001:001137e0       _cvsf_eml_init_script      101147e0 f   sfc_debugmsvc80:cv_sfinterface.obj
 0001:00113850       _cvsf_eml_init_fcn         10114850 f   sfc_debugmsvc80:cv_sfinterface.obj
 0001:001138b0       _cvsf_eml_init_testobjective 101148b0 f   sfc_debugmsvc80:cv_sfinterface.obj
 0001:00113910       _cvsf_eml_init_saturation  10114910 f   sfc_debugmsvc80:cv_sfinterface.obj
 0001:00113970       _cvsf_eml_init_if          10114970 f   sfc_debugmsvc80:cv_sfinterface.obj
 0001:001139d0       _cvsf_eml_init_for         101149d0 f   sfc_debugmsvc80:cv_sfinterface.obj
 0001:00113a30       _cvsf_eml_init_while       10114a30 f   sfc_debugmsvc80:cv_sfinterface.obj
 0001:00113a90       _cvsf_eml_init_mcdc        10114a90 f   sfc_debugmsvc80:cv_sfinterface.obj
 0001:00113b00       _cvsf_eml_init_switch      10114b00 f   sfc_debugmsvc80:cv_sfinterface.obj
 0001:00113b60       _cvsf_script_eval          10114b60 f   sfc_debugmsvc80:cv_sfinterface.obj
 0001:00113c40       _cvsf_script_init_script   10114c40 f   sfc_debugmsvc80:cv_sfinterface.obj
 0001:00113cb0       _cvsf_script_init_fcn      10114cb0 f   sfc_debugmsvc80:cv_sfinterface.obj
 0001:00113d10       _cvsf_script_init_testobjective 10114d10 f   sfc_debugmsvc80:cv_sfinterface.obj
 0001:00113d70       _cvsf_script_init_saturation 10114d70 f   sfc_debugmsvc80:cv_sfinterface.obj
 0001:00113dd0       _cvsf_script_init_if       10114dd0 f   sfc_debugmsvc80:cv_sfinterface.obj
 0001:00113e30       _cvsf_script_init_for      10114e30 f   sfc_debugmsvc80:cv_sfinterface.obj
 0001:00113e80       _cvsf_script_init_while    10114e80 f   sfc_debugmsvc80:cv_sfinterface.obj
 0001:00113ed0       _cvsf_script_init_mcdc     10114ed0 f   sfc_debugmsvc80:cv_sfinterface.obj
 0001:00113f40       _cvsf_script_init_switch   10114f40 f   sfc_debugmsvc80:cv_sfinterface.obj
 0001:00113fa0       _cv_destroy_interface      10114fa0 f   sfc_debugmsvc80:cv_sfinterface.obj
 0001:00113fc0       _cv_create_instance_objects 10114fc0 f   sfc_debugmsvc80:cv_sfinterface.obj
 0001:001142f0       _cv_is_enabled             101152f0 f   sfc_debugmsvc80:cv_sfinterface.obj
 0001:00114300       _sf_debug_cv_initialize_script 10115300 f   sfc_debugmsvc80:cv_sfinterface.obj
 0001:00114480       _sf_debug_cv_initialize_instance 10115480 f   sfc_debugmsvc80:cv_sfinterface.obj
 0001:00114770       _sf_debug_cv_terminate_chart 10115770 f   sfc_debugmsvc80:cv_sfinterface.obj
 0001:00114870       _cv_call_trans_test        10115870 f   sfc_debugmsvc80:cv_sfinterface.obj
 0001:00114880       _cv_call_sub_cond_test     10115880 f   sfc_debugmsvc80:cv_sfinterface.obj
 0001:001148c0       _sf_debug_st_initialize_machine 101158c0 f   sfc_debugmsvc80:sfdb_data_browse.obj
 0001:00114970       _sf_debug_st_initialize_instance 10115970 f   sfc_debugmsvc80:sfdb_data_browse.obj
 0001:00114b20       _sf_debug_st_terminate     10115b20 f   sfc_debugmsvc80:sfdb_data_browse.obj
 0001:00114c80       _sf_debug_st_set_data_value_ptr_in_machine 10115c80 f   sfc_debugmsvc80:sfdb_data_browse.obj
 0001:00114cf0       _sf_debug_st_set_data_value_ptr_in_instance 10115cf0 f   sfc_debugmsvc80:sfdb_data_browse.obj
 0001:00114da0       _sf_debug_st_unset_data_value_ptr_in_machine 10115da0 f   sfc_debugmsvc80:sfdb_data_browse.obj
 0001:00114e00       _sf_debug_st_unset_data_value_ptr_in_instance 10115e00 f   sfc_debugmsvc80:sfdb_data_browse.obj
 0001:00115110       _sf_debug_mx_value         10116110 f   sfc_debugmsvc80:sfdb_data_browse.obj
 0001:00115160       _sf_debug_mx_packed_vector 10116160 f   sfc_debugmsvc80:sfdb_data_browse.obj
 0001:00115200       _sf_debug_mx_uint_vector   10116200 f   sfc_debugmsvc80:sfdb_data_browse.obj
 0001:00115280       _sf_debug_st_get_double_value_from_void_ptr_vector 10116280 f   sfc_debugmsvc80:sfdb_data_browse.obj
 0001:00115a80       _sf_debug_st_browse_data   10116a80 f   sfc_debugmsvc80:sfdb_data_browse.obj
 0001:00116160       _sf_debug_hm_initialize_instance 10117160 f   sfc_debugmsvc80:sfdb_handle_management.obj
 0001:00116600       _sf_debug_hm_get_object_id 10117600 f   sfc_debugmsvc80:sfdb_handle_management.obj
 0001:00117020       _sf_debug_hm_update_chart_visibility 10118020 f   sfc_debugmsvc80:sfdb_handle_management.obj
 0001:00118020       _sf_debug_object_is_eml_function 10119020 f   sfc_debugmsvc80:sfdb_handle_management.obj
 0001:00118080       _sf_debug_hm_initialize_ids_in_machine 10119080 f   sfc_debugmsvc80:sfdb_handle_management.obj
 0001:001181d0       _sf_debug_hm_initialize_ids_in_chart 101191d0 f   sfc_debugmsvc80:sfdb_handle_management.obj
 0001:001182c0       _sf_debug_hm_initialize_chart 101192c0 f   sfc_debugmsvc80:sfdb_handle_management.obj
 0001:00118980       _sf_debug_hm_terminate     10119980 f   sfc_debugmsvc80:sfdb_handle_management.obj
 0001:001189e0       _sf_debug_hm_initialize_machine 101199e0 f   sfc_debugmsvc80:sfdb_handle_management.obj
 0001:001190b0       _sf_debug_ss_initialize    1011a0b0 f   sfc_debugmsvc80:sfdb_symbol_scope.obj
 0001:001190d0       _sf_debug_ss_terminate     1011a0d0 f   sfc_debugmsvc80:sfdb_symbol_scope.obj
 0001:00119150       _sf_debug_ss_push_symbol_scope 1011a150 f   sfc_debugmsvc80:sfdb_symbol_scope.obj
 0001:00119210       _sf_debug_ss_push_symbol_scope_eml 1011a210 f   sfc_debugmsvc80:sfdb_symbol_scope.obj
 0001:00119260       _sf_debug_ss_pop_symbol_scope 1011a260 f   sfc_debugmsvc80:sfdb_symbol_scope.obj
 0001:00119300       _sf_debug_ss_add_symbol    1011a300 f   sfc_debugmsvc80:sfdb_symbol_scope.obj
 0001:001193f0       _sf_debug_ss_add_symbol_eml 1011a3f0 f   sfc_debugmsvc80:sfdb_symbol_scope.obj
 0001:00119d00       _sf_debug_ss_set_data_value 1011ad00 f   sfc_debugmsvc80:sfdb_symbol_scope.obj
 0001:0011a050       _getInstanceNumber         1011b050 f   sfc_debugmsvc80:sfdb_symbol_scope.obj
 0001:0011a120       _sf_debug_ss_watch_data    1011b120 f   sfc_debugmsvc80:sfdb_symbol_scope.obj
 0001:0011a210       _sf_debug_ss_assign_data   1011b210 f   sfc_debugmsvc80:sfdb_symbol_scope.obj
 0001:0011aab0       _get_data_entry_name       1011bab0 f   sfc_debugmsvc80:sfdb_symbol_scope.obj
 0001:0011ab00       _sf_debug_ss_whos          1011bb00 f   sfc_debugmsvc80:sfdb_symbol_scope.obj
 0001:0011afb0       _sf_debug_cc_initialize_chart 1011bfb0 f   sfc_debugmsvc80:sfdb_coverage.obj
 0001:0011b910       _sf_debug_cc_initialize_instance 1011c910 f   sfc_debugmsvc80:sfdb_coverage.obj
 0001:0011c540       _sf_debug_cc_terminate     1011d540 f   sfc_debugmsvc80:sfdb_coverage.obj
 0001:0011c610       _sf_debug_cc_set_transition_maps 1011d610 f   sfc_debugmsvc80:sfdb_coverage.obj
 0001:0011c710       _sf_debug_cc_set_state_maps 1011d710 f   sfc_debugmsvc80:sfdb_coverage.obj
 0001:0011c7e0       _sf_debug_cc_set_transition_weights 1011d7e0 f   sfc_debugmsvc80:sfdb_coverage.obj
 0001:0011ca10       _sf_debug_cc_set_state_weights 1011da10 f   sfc_debugmsvc80:sfdb_coverage.obj
 0001:0011cc40       _sf_debug_cc_mark_transition_guard 1011dc40 f   sfc_debugmsvc80:sfdb_coverage.obj
 0001:0011ccc0       _sf_debug_cc_mark_transition_trigger 1011dcc0 f   sfc_debugmsvc80:sfdb_coverage.obj
 0001:0011cd40       _sf_debug_cc_mark_transition_decision 1011dd40 f   sfc_debugmsvc80:sfdb_coverage.obj
 0001:0011cda0       _sf_debug_cc_mark_transition_condition_action 1011dda0 f   sfc_debugmsvc80:sfdb_coverage.obj
 0001:0011cdf0       _sf_debug_cc_mark_transition_transition_action 1011ddf0 f   sfc_debugmsvc80:sfdb_coverage.obj
 0001:0011ce40       _sf_debug_cc_mark_state_entry 1011de40 f   sfc_debugmsvc80:sfdb_coverage.obj
 0001:0011ce90       _sf_debug_cc_mark_state_during 1011de90 f   sfc_debugmsvc80:sfdb_coverage.obj
 0001:0011cee0       _sf_debug_cc_mark_state_exit 1011dee0 f   sfc_debugmsvc80:sfdb_coverage.obj
 0001:0011cf30       _sf_debug_bm_clear_script_breakpoints 1011df30 f   sfc_debugmsvc80:sfdb_breakpoints.obj
 0001:0011cf70       _sf_debug_bm_set_script_breakpoint 1011df70 f   sfc_debugmsvc80:sfdb_breakpoints.obj
 0001:0011cfe0       _sf_debug_bm_clear_single_script_breakpoint 1011dfe0 f   sfc_debugmsvc80:sfdb_breakpoints.obj
 0001:0011d050       _sf_debug_bm_query_script_breakpoint 1011e050 f   sfc_debugmsvc80:sfdb_breakpoints.obj
 0001:0011d0a0       _sf_debug_bm_initialize_scripts 1011e0a0 f   sfc_debugmsvc80:sfdb_breakpoints.obj
 0001:0011d640       _sf_debug_bm_terminate     1011e640 f   sfc_debugmsvc80:sfdb_breakpoints.obj
 0001:0011d8f0       _sf_debug_bm_remove_all_breakpoints_in_machine 1011e8f0 f   sfc_debugmsvc80:sfdb_breakpoints.obj
 0001:0011d940       _sf_debug_bm_remove_all_breakpoints_in_chart 1011e940 f   sfc_debugmsvc80:sfdb_breakpoints.obj
 0001:0011da70       _sf_debug_bm_initialize_global_breakpoints 1011ea70 f   sfc_debugmsvc80:sfdb_breakpoints.obj
 0001:0011dc20       _sf_debug_bm_set_breakpoint 1011ec20 f   sfc_debugmsvc80:sfdb_breakpoints.obj
 0001:0011e180       _sf_debug_bm_set_eml_breakpoint 1011f180 f   sfc_debugmsvc80:sfdb_breakpoints.obj
 0001:0011e200       _sf_debug_bm_initialize_machine_breakpoint_map 1011f200 f   sfc_debugmsvc80:sfdb_breakpoints.obj
 0001:0011e5a0       _sf_debug_bm_is_a_breakpoint 1011f5a0 f   sfc_debugmsvc80:sfdb_breakpoints.obj
 0001:0011ea80       _sf_debug_bm_get_all_breakpoints_in_machine 1011fa80 f   sfc_debugmsvc80:sfdb_breakpoints.obj
 0001:0011ed20       _sf_debug_bm_get_all_breakpoints_in_chart 1011fd20 f   sfc_debugmsvc80:sfdb_breakpoints.obj
 0001:0011f750       _sf_debug_bm_initialize_machine 10120750 f   sfc_debugmsvc80:sfdb_breakpoints.obj
 0001:0011f7f0       _sf_debug_bm_initialize_chart 101207f0 f   sfc_debugmsvc80:sfdb_breakpoints.obj
 0001:0011fb70       _sf_debug_sc_terminate     10120b70 f   sfc_debugmsvc80:sfdb_state_consistency.obj
 0001:0011fdf0       _sf_debug_sc_is_chart_consistent 10120df0 f   sfc_debugmsvc80:sfdb_state_consistency.obj
 0001:0011ffd0       _sf_debug_sc_get_consistency_error_info 10120fd0 f   sfc_debugmsvc80:sfdb_state_consistency.obj
 0001:00120340       _sf_debug_tm_terminate     10121340 f   sfc_debugmsvc80:sfdb_call_stack.obj
 0001:001203e0       _sf_debug_tm_push_chart_instance 101213e0 f   sfc_debugmsvc80:sfdb_call_stack.obj
 0001:00120500       _sf_debug_tm_pop_chart_instance 10121500 f   sfc_debugmsvc80:sfdb_call_stack.obj
 0001:00120560       _sf_debug_tm_push_trace_node 10121560 f   sfc_debugmsvc80:sfdb_call_stack.obj
 0001:00120670       _sf_debug_tm_pop_trace_node 10121670 f   sfc_debugmsvc80:sfdb_call_stack.obj
 0001:001206f0       _sf_debug_tm_get_current_global_trace_index 101216f0 f   sfc_debugmsvc80:sfdb_call_stack.obj
 0001:00120710       _sf_debug_tm_get_current_local_trace_index 10121710 f   sfc_debugmsvc80:sfdb_call_stack.obj
 0001:00120740       _sf_debug_tm_set_cycle_detected_flag 10121740 f   sfc_debugmsvc80:sfdb_call_stack.obj
 0001:00120790       _sf_debug_tm_set_cycle_started_flag 10121790 f   sfc_debugmsvc80:sfdb_call_stack.obj
 0001:001207e0       _sf_debug_tm_get_chart_number_from_stack 101217e0 f   sfc_debugmsvc80:sfdb_call_stack.obj
 0001:00120980       _sf_debug_tm_browse_trace  10121980 f   sfc_debugmsvc80:sfdb_call_stack.obj
 0001:00120bf0       _sf_debug_cd_initialize_instance 10121bf0 f   sfc_debugmsvc80:sfdb_cycle_detection.obj
 0001:00120e20       _sf_debug_cd_mark_processed_transition_in_instance 10121e20 f   sfc_debugmsvc80:sfdb_cycle_detection.obj
 0001:00120ea0       _sf_debug_cd_checksum_push 10121ea0 f   sfc_debugmsvc80:sfdb_cycle_detection.obj
 0001:001211a0       _sf_debug_cd_checksum_pop  101221a0 f   sfc_debugmsvc80:sfdb_cycle_detection.obj
 0001:00121200       _sf_debug_cd_turn_off_cycle_detection 10122200 f   sfc_debugmsvc80:sfdb_cycle_detection.obj
 0001:00121240       _sf_debug_cd_terminate     10122240 f   sfc_debugmsvc80:sfdb_cycle_detection.obj
 0001:00121410       _md5_initialize_state      10122410 f   sfc_debugmsvc80:ckmd5.obj
 0001:00121ca0       _md5_update_state          10122ca0 f   sfc_debugmsvc80:ckmd5.obj
 0001:00121cc0       _md5_get_hash              10122cc0 f   sfc_debugmsvc80:ckmd5.obj
 0001:00121ce0       _md5_get_hash_for_a_single_string 10122ce0 f   sfc_debugmsvc80:ckmd5.obj
 0001:00121d4a       _mxGetPr                   10122d4a f   libmx:libmx.dll
 0001:00121d50       _mxCreateDoubleScalar      10122d50 f   libmx:libmx.dll
 0001:00121d56       _mxCreateDoubleMatrix_730  10122d56 f   libmx:libmx.dll
 0001:00121d5c       _mxSetField_730            10122d5c f   libmx:libmx.dll
 0001:00121d62       _mxCreateString            10122d62 f   libmx:libmx.dll
 0001:00121d68       _mxCreateStructMatrix_730  10122d68 f   libmx:libmx.dll
 0001:00121d6e       _mxCreateCellMatrix_730    10122d6e f   libmx:libmx.dll
 0001:00121d74       _mxDestroyArray            10122d74 f   libmx:libmx.dll
 0001:00121d7a       _mxDuplicateArray          10122d7a f   libmx:libmx.dll
 0001:00121d80       _mxGetNaN                  10122d80 f   libmx:libmx.dll
 0001:00121d86       _mxGetString_730           10122d86 f   libmx:libmx.dll
 0001:00121d8c       _mxIsChar                  10122d8c f   libmx:libmx.dll
 0001:00121d92       _mxGetClassID              10122d92 f   libmx:libmx.dll
 0001:00121d98       _mxIsNumeric               10122d98 f   libmx:libmx.dll
 0001:00121d9e       _mxIsComplex               10122d9e f   libmx:libmx.dll
 0001:00121da4       _mxGetN                    10122da4 f   libmx:libmx.dll
 0001:00121daa       _mxGetM                    10122daa f   libmx:libmx.dll
 0001:00121db0       _mxCalloc                  10122db0 f   libmx:libmx.dll
 0001:00121db6       _mxGetScalar               10122db6 f   libmx:libmx.dll
 0001:00121dbc       _mxIsLogical               10122dbc f   libmx:libmx.dll
 0001:00121dc2       _mxCreateDoubleMatrix_700  10122dc2 f   libmx:libmx.dll
 0001:00121dc8       _mxFree                    10122dc8 f   libmx:libmx.dll
 0001:00121dce       _mxArrayToString           10122dce f   libmx:libmx.dll
 0001:00121dd4       _mxCreateCellMatrix_700    10122dd4 f   libmx:libmx.dll
 0001:00121dda       _mxSetCell_700             10122dda f   libmx:libmx.dll
 0001:00121de0       _mxGetCell_700             10122de0 f   libmx:libmx.dll
 0001:00121de6       _mxGetClassName            10122de6 f   libmx:libmx.dll
 0001:00121dec       _mxSetField_700            10122dec f   libmx:libmx.dll
 0001:00121df2       _mxAddField                10122df2 f   libmx:libmx.dll
 0001:00121df8       _mxGetField_700            10122df8 f   libmx:libmx.dll
 0001:00121dfe       _mxGetNumberOfElements     10122dfe f   libmx:libmx.dll
 0001:00121e04       _mxIsStruct                10122e04 f   libmx:libmx.dll
 0001:00121e0a       _mxIsA                     10122e0a f   libmx:libmx.dll
 0001:00121e10       _mxIsClass                 10122e10 f   libmx:libmx.dll
 0001:00121e16       _mxGetLogicals             10122e16 f   libmx:libmx.dll
 0001:00121e1c       _mxIsSparse                10122e1c f   libmx:libmx.dll
 0001:00121e22       _mxSetFieldByNumber_700    10122e22 f   libmx:libmx.dll
 0001:00121e28       _mxGetFieldByNumber_700    10122e28 f   libmx:libmx.dll
 0001:00121e2e       _mxGetFieldNameByNumber    10122e2e f   libmx:libmx.dll
 0001:00121e34       _mxGetNumberOfFields       10122e34 f   libmx:libmx.dll
 0001:00121e3a       _mxCreateStructMatrix_700  10122e3a f   libmx:libmx.dll
 0001:00121e40       _mxGetFieldNumber          10122e40 f   libmx:libmx.dll
 0001:00121e46       _mxIsNaN                   10122e46 f   libmx:libmx.dll
 0001:00121e4c       _mxIsEmpty                 10122e4c f   libmx:libmx.dll
 0001:00121e52       _mxGetData                 10122e52 f   libmx:libmx.dll
 0001:00121e58       _mxGetImagData             10122e58 f   libmx:libmx.dll
 0001:00121e5e       _mxArrayClassIDName        10122e5e f   libmx:libmx.dll
 0001:00121e64       _mxCreateNumericMatrix_700 10122e64 f   libmx:libmx.dll
 0001:00121e6a       _mxCreateStructArray_700   10122e6a f   libmx:libmx.dll
 0001:00121e70       _mxCalcSingleSubscript_700 10122e70 f   libmx:libmx.dll
 0001:00121e76       _mxGetDimensions_700       10122e76 f   libmx:libmx.dll
 0001:00121e7c       _mxGetNumberOfDimensions_700 10122e7c f   libmx:libmx.dll
 0001:00121e82       _mxCreateNumericArray_700  10122e82 f   libmx:libmx.dll
 0001:00121e88       _mxGetElementSize          10122e88 f   libmx:libmx.dll
 0001:00121e8e       _mxCreateStringFromNChars_700 10122e8e f   libmx:libmx.dll
 0001:00121e94       _mxGetString_700           10122e94 f   libmx:libmx.dll
 0001:00121e9a       _mxIsLogicalScalarTrue     10122e9a f   libmx:libmx.dll
 0001:00121ea0       _mxCreateLogicalScalar     10122ea0 f   libmx:libmx.dll
 0001:00121ea6       _mexUnlock                 10122ea6 f   libmex:libmex.dll
 0001:00121eac       _mexIsLocked               10122eac f   libmex:libmex.dll
 0001:00121eb2       _mexWarnMsgTxt             10122eb2 f   libmex:libmex.dll
 0001:00121eb8       _mexCallMATLAB             10122eb8 f   libmex:libmex.dll
 0001:00121ebe       _mexErrMsgTxt              10122ebe f   libmex:libmex.dll
 0001:00121ec4       _mexMakeArrayPersistent    10122ec4 f   libmex:libmex.dll
 0001:00121eca       _mexSetTrapFlag            10122eca f   libmex:libmex.dll
 0001:00121ed0       _mexPutVariable            10122ed0 f   libmex:libmex.dll
 0001:00121ed6       _mexGetVariable            10122ed6 f   libmex:libmex.dll
 0001:00121edc       _mexLock                   10122edc f   libmex:libmex.dll
 0001:00121ee2       _mexMakeMemoryPersistent   10122ee2 f   libmex:libmex.dll
 0001:00121ee8       _mexFunctionName           10122ee8 f   libmex:libmex.dll
 0001:00121eee       _ssRegisterDataTypeFxpFSlopeFixExpBias 10122eee f   libfixedpoint:libfixedpoint.dll
 0001:00121ef4       _ssRegisterDataTypeFxpScaledDouble 10122ef4 f   libfixedpoint:libfixedpoint.dll
 0001:00121efa       _utMalloc                  10122efa f   libut:libut.dll
 0001:00121f00       _utFree                    10122f00 f   libut:libut.dll
 0001:00121f06       _utVSNprintf               10122f06 f   libut:libut.dll
 0001:00121f0c       _utCPUtime                 10122f0c f   libut:libut.dll
 0001:00121f12       _utCalloc                  10122f12 f   libut:libut.dll
 0001:00121f18       _utRealloc                 10122f18 f   libut:libut.dll
 0001:00121f1e       _muDoubleScalarAbs         10122f1e f   libmwmathutil:libmwmathutil.dll
 0001:00121f24       _muDoubleScalarCos         10122f24 f   libmwmathutil:libmwmathutil.dll
 0001:00121f2a       _muDoubleScalarSin         10122f2a f   libmwmathutil:libmwmathutil.dll
 0001:00121f30       _muDoubleScalarSqrt        10122f30 f   libmwmathutil:libmwmathutil.dll
 0001:00121f36       _muDoubleScalarIsNaN       10122f36 f   libmwmathutil:libmwmathutil.dll
 0001:00121f3c       _muDoubleScalarIsInf       10122f3c f   libmwmathutil:libmwmathutil.dll
 0001:00121f42       _muDoubleScalarMax         10122f42 f   libmwmathutil:libmwmathutil.dll
 0001:00121f48       _muDoubleScalarRound       10122f48 f   libmwmathutil:libmwmathutil.dll
 0001:00121f4e       _muDoubleScalarFloor       10122f4e f   libmwmathutil:libmwmathutil.dll
 0001:00121f54       _muDoubleScalarAsin        10122f54 f   libmwmathutil:libmwmathutil.dll
 0001:00121f5a       _emlrtCreateRootTLS        10122f5a f   libemlrt:libemlrt.dll
 0001:00121f60       _emlrtDestroyRootTLS       10122f60 f   libemlrt:libemlrt.dll
 0001:00121f66       _emlrtCheckBuiltInR2012b   10122f66 f   libemlrt:libemlrt.dll
 0001:00121f6c       _emlrtCheckVsBuiltInR2012b 10122f6c f   libemlrt:libemlrt.dll
 0001:00121f72       _emlrtCheckEnumR2012b      10122f72 f   libemlrt:libemlrt.dll
 0001:00121f78       _emlrtCreateEnumR2012b     10122f78 f   libemlrt:libemlrt.dll
 0001:00121f7e       _emlrtGetEnumElementR2009a 10122f7e f   libemlrt:libemlrt.dll
 0001:00121f84       _emlrtCreateReference      10122f84 f   libemlrt:libemlrt.dll
 0001:00121f8a       _emlrtImportVsFiArrayR2009b 10122f8a f   libemlrt:libemlrt.dll
 0001:00121f90       _emlrtNameCapturePostProcessR2012a 10122f90 f   libemlrt:libemlrt.dll
 0001:00121f96       _emlrtExtractMessageId     10122f96 f   libemlrt:libemlrt.dll
 0001:00121f9c       _emlrtTranslateMessageIDtoLCPstring 10122f9c f   libemlrt:libemlrt.dll
 0001:00121fa2       _emlrtForLoopVectorIsValidR2011b 10122fa2 f   libemlrt:libemlrt.dll
 0001:00121fa8       _emlrtTranslateUTF16MessagetoLCPstring 10122fa8 f   libemlrt:libemlrt.dll
 0001:00121fae       _emlrtGetEnumUnderlyingArrayR2009a 10122fae f   libemlrt:libemlrt.dll
 0001:00121fb4       _emlrtIsEnumR2009a         10122fb4 f   libemlrt:libemlrt.dll
 0001:00121fba       _drotg                     10122fba f   libmwblas:libmwblas.dll
 0001:00121fc0       _strlen                    10122fc0 f   MSVCRT:MSVCR100.dll
 0001:00121fc6       @__security_check_cookie@4 10122fc6 f   MSVCRT:secchk.obj
 0001:00121fe0       _memset                    10122fe0 f   MSVCRT:MSVCR100.dll
 0001:00121ff0       __alloca_probe             10122ff0     MSVCRT:chkstk.obj
 0001:00121ff0       __chkstk                   10122ff0 f   MSVCRT:chkstk.obj
 0001:00122020       __ftol2_sse                10123020 f   MSVCRT:ftol2.obj
 0001:00122029       __ftol2_pentium4           10123029 f   MSVCRT:ftol2.obj
 0001:0012203c       __ftol2_sse_excpt          1012303c f   MSVCRT:ftol2.obj
 0001:00122056       __ftol2                    10123056 f   MSVCRT:ftol2.obj
 0001:001220cc       _memcpy                    101230cc f   MSVCRT:MSVCR100.dll
 0001:001220d2       _strcmp                    101230d2 f   MSVCRT:MSVCR100.dll
 0001:001220d8       _free                      101230d8 f   MSVCRT:MSVCR100.dll
 0001:001220de       _sprintf                   101230de f   MSVCRT:MSVCR100.dll
 0001:001220e4       _malloc                    101230e4 f   MSVCRT:MSVCR100.dll
 0001:001220ea       _strcat                    101230ea f   MSVCRT:MSVCR100.dll
 0001:001220f0       _NtCurrentTeb              101230f0 f i MSVCRT:crtdll.obj
 0001:00122145       __CRT_INIT@12              10123145 f   MSVCRT:crtdll.obj
 0001:00122465       __DllMainCRTStartup@12     10123465 f   MSVCRT:crtdll.obj
 0001:00122488       _strncpy                   10123488 f   MSVCRT:MSVCR100.dll
 0001:0012248e       _longjmp                   1012348e f   MSVCRT:MSVCR100.dll
 0001:00122494       _strncmp                   10123494 f   MSVCRT:MSVCR100.dll
 0001:0012249a       _ceil                      1012349a f   MSVCRT:MSVCR100.dll
 0001:001224a0       _strrchr                   101234a0 f   MSVCRT:MSVCR100.dll
 0001:001224a6       __setjmp3                  101234a6 f   MSVCRT:MSVCR100.dll
 0001:001224ac       _ldexp                     101234ac f   MSVCRT:MSVCR100.dll
 0001:001224b2       ___report_gsfailure        101234b2 f   MSVCRT:gs_report.obj
 0001:001225b8       ___sse2_available_init     101235b8 f   MSVCRT:cpu_disp.obj
 0001:001225c8       ___clean_type_info_names   101235c8 f   MSVCRT:tncleanup.obj
 0001:001225d4       __onexit                   101235d4 f   MSVCRT:atonexit.obj
 0001:00122675       _atexit                    10123675 f   MSVCRT:atonexit.obj
 0001:0012268c       __RTC_Initialize           1012368c f   MSVCRT:_initsect_.obj
 0001:001226b2       __RTC_Terminate            101236b2 f   MSVCRT:_initsect_.obj
 0001:001226d8       __malloc_crt               101236d8 f   MSVCRT:MSVCR100.dll
 0001:001226de       __encoded_null             101236de f   MSVCRT:MSVCR100.dll
 0001:001226f0       __ValidateImageBase        101236f0 f   MSVCRT:pesect.obj
 0001:00122730       __FindPESection            10123730 f   MSVCRT:pesect.obj
 0001:00122780       __IsNonwritableInCurrentImage 10123780 f   MSVCRT:pesect.obj
 0001:0012283c       __initterm                 1012383c f   MSVCRT:MSVCR100.dll
 0001:00122842       __initterm_e               10123842 f   MSVCRT:MSVCR100.dll
 0001:00122848       __amsg_exit                10123848 f   MSVCRT:MSVCR100.dll
 0001:0012284e       ___CppXcptFilter           1012384e f   MSVCRT:MSVCR100.dll
 0001:00122854       _DllMain@12                10123854 f   MSVCRT:dllmain.obj
 0001:00122880       __SEH_prolog4              10123880 f   MSVCRT:sehprolg4.obj
 0001:001228c5       __SEH_epilog4              101238c5 f   MSVCRT:sehprolg4.obj
 0001:001228d9       __except_handler4          101238d9 f   MSVCRT:chandler4gs.obj
 0001:001228fe       ___security_init_cookie    101238fe f   MSVCRT:gs_support.obj
 0001:0012299a       __crt_debugger_hook        1012399a f   MSVCRT:MSVCR100.dll
 0001:001229a0       ___clean_type_info_names_internal 101239a0 f   MSVCRT:MSVCR100.dll
 0001:001229a6       __unlock                   101239a6 f   MSVCRT:MSVCR100.dll
 0001:001229ac       ___dllonexit               101239ac f   MSVCRT:MSVCR100.dll
 0001:001229b2       __lock                     101239b2 f   MSVCRT:MSVCR100.dll
 0001:001229b8       __except_handler4_common   101239b8 f   MSVCRT:MSVCR100.dll
 0001:001229be       _EncodePointer@4           101239be f   kernel32:KERNEL32.dll
 0001:001229c4       _DecodePointer@4           101239c4 f   kernel32:KERNEL32.dll
 0001:001229ca       _InterlockedExchange@8     101239ca f   kernel32:KERNEL32.dll
 0001:001229d0       _Sleep@4                   101239d0 f   kernel32:KERNEL32.dll
 0001:001229d6       _InterlockedCompareExchange@12 101239d6 f   kernel32:KERNEL32.dll
 0001:001229dc       _TerminateProcess@8        101239dc f   kernel32:KERNEL32.dll
 0001:001229e2       _GetCurrentProcess@0       101239e2 f   kernel32:KERNEL32.dll
 0001:001229e8       _UnhandledExceptionFilter@4 101239e8 f   kernel32:KERNEL32.dll
 0001:001229ee       _SetUnhandledExceptionFilter@4 101239ee f   kernel32:KERNEL32.dll
 0001:001229f4       _IsDebuggerPresent@0       101239f4 f   kernel32:KERNEL32.dll
 0001:001229fa       _IsProcessorFeaturePresent@4 101239fa f   kernel32:KERNEL32.dll
 0001:00122a00       _DisableThreadLibraryCalls@4 10123a00 f   kernel32:KERNEL32.dll
 0001:00122a06       _QueryPerformanceCounter@4 10123a06 f   kernel32:KERNEL32.dll
 0001:00122a0c       _GetTickCount@0            10123a0c f   kernel32:KERNEL32.dll
 0001:00122a12       _GetCurrentThreadId@0      10123a12 f   kernel32:KERNEL32.dll
 0001:00122a18       _GetCurrentProcessId@0     10123a18 f   kernel32:KERNEL32.dll
 0001:00122a1e       _GetSystemTimeAsFileTime@4 10123a1e f   kernel32:KERNEL32.dll
 0002:00000000       __imp__IsDebuggerPresent@0 10124000     kernel32:KERNEL32.dll
 0002:00000004       __imp__SetUnhandledExceptionFilter@4 10124004     kernel32:KERNEL32.dll
 0002:00000008       __imp__UnhandledExceptionFilter@4 10124008     kernel32:KERNEL32.dll
 0002:0000000c       __imp__GetCurrentProcess@0 1012400c     kernel32:KERNEL32.dll
 0002:00000010       __imp__TerminateProcess@8  10124010     kernel32:KERNEL32.dll
 0002:00000014       __imp__InterlockedCompareExchange@12 10124014     kernel32:KERNEL32.dll
 0002:00000018       __imp__Sleep@4             10124018     kernel32:KERNEL32.dll
 0002:0000001c       __imp__InterlockedExchange@8 1012401c     kernel32:KERNEL32.dll
 0002:00000020       __imp__DecodePointer@4     10124020     kernel32:KERNEL32.dll
 0002:00000024       __imp__EncodePointer@4     10124024     kernel32:KERNEL32.dll
 0002:00000028       __imp__DisableThreadLibraryCalls@4 10124028     kernel32:KERNEL32.dll
 0002:0000002c       __imp__QueryPerformanceCounter@4 1012402c     kernel32:KERNEL32.dll
 0002:00000030       __imp__GetTickCount@0      10124030     kernel32:KERNEL32.dll
 0002:00000034       __imp__GetCurrentThreadId@0 10124034     kernel32:KERNEL32.dll
 0002:00000038       __imp__GetCurrentProcessId@0 10124038     kernel32:KERNEL32.dll
 0002:0000003c       __imp__GetSystemTimeAsFileTime@4 1012403c     kernel32:KERNEL32.dll
 0002:00000040       __imp__IsProcessorFeaturePresent@4 10124040     kernel32:KERNEL32.dll
 0002:00000044       \177KERNEL32_NULL_THUNK_DATA 10124044     kernel32:KERNEL32.dll
 0002:00000048       __imp___except_handler4_common 10124048     MSVCRT:MSVCR100.dll
 0002:0000004c       __imp___onexit             1012404c     MSVCRT:MSVCR100.dll
 0002:00000050       __imp___lock               10124050     MSVCRT:MSVCR100.dll
 0002:00000054       __imp____dllonexit         10124054     MSVCRT:MSVCR100.dll
 0002:00000058       __imp___unlock             10124058     MSVCRT:MSVCR100.dll
 0002:0000005c       __imp____clean_type_info_names_internal 1012405c     MSVCRT:MSVCR100.dll
 0002:00000060       __imp___crt_debugger_hook  10124060     MSVCRT:MSVCR100.dll
 0002:00000064       __imp____CppXcptFilter     10124064     MSVCRT:MSVCR100.dll
 0002:00000068       __imp___amsg_exit          10124068     MSVCRT:MSVCR100.dll
 0002:0000006c       __imp___initterm_e         1012406c     MSVCRT:MSVCR100.dll
 0002:00000070       __imp___initterm           10124070     MSVCRT:MSVCR100.dll
 0002:00000074       __imp___encoded_null       10124074     MSVCRT:MSVCR100.dll
 0002:00000078       __imp___malloc_crt         10124078     MSVCRT:MSVCR100.dll
 0002:0000007c       __imp__ldexp               1012407c     MSVCRT:MSVCR100.dll
 0002:00000080       __imp___setjmp3            10124080     MSVCRT:MSVCR100.dll
 0002:00000084       __imp__strrchr             10124084     MSVCRT:MSVCR100.dll
 0002:00000088       __imp__ceil                10124088     MSVCRT:MSVCR100.dll
 0002:0000008c       __imp__strncmp             1012408c     MSVCRT:MSVCR100.dll
 0002:00000090       __imp__longjmp             10124090     MSVCRT:MSVCR100.dll
 0002:00000094       __imp__strncpy             10124094     MSVCRT:MSVCR100.dll
 0002:00000098       __imp__strcat              10124098     MSVCRT:MSVCR100.dll
 0002:0000009c       __imp__malloc              1012409c     MSVCRT:MSVCR100.dll
 0002:000000a0       __imp__sprintf             101240a0     MSVCRT:MSVCR100.dll
 0002:000000a4       __imp__free                101240a4     MSVCRT:MSVCR100.dll
 0002:000000a8       __imp__strcmp              101240a8     MSVCRT:MSVCR100.dll
 0002:000000ac       __imp__memcpy              101240ac     MSVCRT:MSVCR100.dll
 0002:000000b0       __imp__memset              101240b0     MSVCRT:MSVCR100.dll
 0002:000000b4       __imp__strlen              101240b4     MSVCRT:MSVCR100.dll
 0002:000000b8       \177MSVCR100_NULL_THUNK_DATA 101240b8     MSVCRT:MSVCR100.dll
 0002:000000bc       __imp__emlrtDestroyRootTLS 101240bc     libemlrt:libemlrt.dll
 0002:000000c0       __imp__emlrtCheckBuiltInR2012b 101240c0     libemlrt:libemlrt.dll
 0002:000000c4       __imp__emlrtIsEnumR2009a   101240c4     libemlrt:libemlrt.dll
 0002:000000c8       __imp__emlrtGetEnumUnderlyingArrayR2009a 101240c8     libemlrt:libemlrt.dll
 0002:000000cc       __imp__emlrtTranslateUTF16MessagetoLCPstring 101240cc     libemlrt:libemlrt.dll
 0002:000000d0       __imp__emlrtForLoopVectorIsValidR2011b 101240d0     libemlrt:libemlrt.dll
 0002:000000d4       __imp__emlrtTranslateMessageIDtoLCPstring 101240d4     libemlrt:libemlrt.dll
 0002:000000d8       __imp__emlrtExtractMessageId 101240d8     libemlrt:libemlrt.dll
 0002:000000dc       __imp__emlrtNameCapturePostProcessR2012a 101240dc     libemlrt:libemlrt.dll
 0002:000000e0       __imp__emlrtImportVsFiArrayR2009b 101240e0     libemlrt:libemlrt.dll
 0002:000000e4       __imp__emlrtCreateReference 101240e4     libemlrt:libemlrt.dll
 0002:000000e8       __imp__emlrtCheckVsBuiltInR2012b 101240e8     libemlrt:libemlrt.dll
 0002:000000ec       __imp__emlrtCheckEnumR2012b 101240ec     libemlrt:libemlrt.dll
 0002:000000f0       __imp__emlrtCreateEnumR2012b 101240f0     libemlrt:libemlrt.dll
 0002:000000f4       __imp__emlrtGetEnumElementR2009a 101240f4     libemlrt:libemlrt.dll
 0002:000000f8       __imp__emlrtCreateRootTLS  101240f8     libemlrt:libemlrt.dll
 0002:000000fc       \177libemlrt_NULL_THUNK_DATA 101240fc     libemlrt:libemlrt.dll
 0002:00000100       __imp__ssRegisterDataTypeFxpScaledDouble 10124100     libfixedpoint:libfixedpoint.dll
 0002:00000104       __imp__ssRegisterDataTypeFxpFSlopeFixExpBias 10124104     libfixedpoint:libfixedpoint.dll
 0002:00000108       \177libfixedpoint_NULL_THUNK_DATA 10124108     libfixedpoint:libfixedpoint.dll
 0002:0000010c       __imp__mexGetVariable      1012410c     libmex:libmex.dll
 0002:00000110       __imp__mexLock             10124110     libmex:libmex.dll
 0002:00000114       __imp__mexMakeMemoryPersistent 10124114     libmex:libmex.dll
 0002:00000118       __imp__mexFunctionName     10124118     libmex:libmex.dll
 0002:0000011c       __imp__mexPutVariable      1012411c     libmex:libmex.dll
 0002:00000120       __imp__mexSetTrapFlag      10124120     libmex:libmex.dll
 0002:00000124       __imp__mexMakeArrayPersistent 10124124     libmex:libmex.dll
 0002:00000128       __imp__mexCallMATLAB       10124128     libmex:libmex.dll
 0002:0000012c       __imp__mexWarnMsgTxt       1012412c     libmex:libmex.dll
 0002:00000130       __imp__mexIsLocked         10124130     libmex:libmex.dll
 0002:00000134       __imp__mexUnlock           10124134     libmex:libmex.dll
 0002:00000138       __imp__mexErrMsgTxt        10124138     libmex:libmex.dll
 0002:0000013c       \177libmex_NULL_THUNK_DATA 1012413c     libmex:libmex.dll
 0002:00000140       __imp__drotg               10124140     libmwblas:libmwblas.dll
 0002:00000144       \177libmwblas_NULL_THUNK_DATA 10124144     libmwblas:libmwblas.dll
 0002:00000148       __imp__muDoubleScalarAbs   10124148     libmwmathutil:libmwmathutil.dll
 0002:0000014c       __imp__muDoubleScalarCos   1012414c     libmwmathutil:libmwmathutil.dll
 0002:00000150       __imp__muDoubleScalarSin   10124150     libmwmathutil:libmwmathutil.dll
 0002:00000154       __imp__muDoubleScalarSqrt  10124154     libmwmathutil:libmwmathutil.dll
 0002:00000158       __imp__muDoubleScalarIsNaN 10124158     libmwmathutil:libmwmathutil.dll
 0002:0000015c       __imp__muDoubleScalarIsInf 1012415c     libmwmathutil:libmwmathutil.dll
 0002:00000160       __imp__muDoubleScalarMax   10124160     libmwmathutil:libmwmathutil.dll
 0002:00000164       __imp__muDoubleScalarRound 10124164     libmwmathutil:libmwmathutil.dll
 0002:00000168       __imp__muDoubleScalarFloor 10124168     libmwmathutil:libmwmathutil.dll
 0002:0000016c       __imp__muDoubleScalarAsin  1012416c     libmwmathutil:libmwmathutil.dll
 0002:00000170       \177libmwmathutil_NULL_THUNK_DATA 10124170     libmwmathutil:libmwmathutil.dll
 0002:00000174       __imp__mxIsChar            10124174     libmx:libmx.dll
 0002:00000178       __imp__mxGetClassID        10124178     libmx:libmx.dll
 0002:0000017c       __imp__mxGetPr             1012417c     libmx:libmx.dll
 0002:00000180       __imp__mxIsNumeric         10124180     libmx:libmx.dll
 0002:00000184       __imp__mxIsComplex         10124184     libmx:libmx.dll
 0002:00000188       __imp__mxGetN              10124188     libmx:libmx.dll
 0002:0000018c       __imp__mxGetM              1012418c     libmx:libmx.dll
 0002:00000190       __imp__mxCreateLogicalScalar 10124190     libmx:libmx.dll
 0002:00000194       __imp__mxIsLogicalScalarTrue 10124194     libmx:libmx.dll
 0002:00000198       __imp__mxGetString_700     10124198     libmx:libmx.dll
 0002:0000019c       __imp__mxCreateStringFromNChars_700 1012419c     libmx:libmx.dll
 0002:000001a0       __imp__mxGetElementSize    101241a0     libmx:libmx.dll
 0002:000001a4       __imp__mxCreateNumericArray_700 101241a4     libmx:libmx.dll
 0002:000001a8       __imp__mxGetNumberOfDimensions_700 101241a8     libmx:libmx.dll
 0002:000001ac       __imp__mxGetDimensions_700 101241ac     libmx:libmx.dll
 0002:000001b0       __imp__mxCalcSingleSubscript_700 101241b0     libmx:libmx.dll
 0002:000001b4       __imp__mxCreateStructArray_700 101241b4     libmx:libmx.dll
 0002:000001b8       __imp__mxCreateNumericMatrix_700 101241b8     libmx:libmx.dll
 0002:000001bc       __imp__mxArrayClassIDName  101241bc     libmx:libmx.dll
 0002:000001c0       __imp__mxGetImagData       101241c0     libmx:libmx.dll
 0002:000001c4       __imp__mxGetData           101241c4     libmx:libmx.dll
 0002:000001c8       __imp__mxIsEmpty           101241c8     libmx:libmx.dll
 0002:000001cc       __imp__mxIsNaN             101241cc     libmx:libmx.dll
 0002:000001d0       __imp__mxGetFieldNumber    101241d0     libmx:libmx.dll
 0002:000001d4       __imp__mxCreateStructMatrix_700 101241d4     libmx:libmx.dll
 0002:000001d8       __imp__mxGetNumberOfFields 101241d8     libmx:libmx.dll
 0002:000001dc       __imp__mxGetFieldNameByNumber 101241dc     libmx:libmx.dll
 0002:000001e0       __imp__mxGetFieldByNumber_700 101241e0     libmx:libmx.dll
 0002:000001e4       __imp__mxSetFieldByNumber_700 101241e4     libmx:libmx.dll
 0002:000001e8       __imp__mxIsSparse          101241e8     libmx:libmx.dll
 0002:000001ec       __imp__mxGetLogicals       101241ec     libmx:libmx.dll
 0002:000001f0       __imp__mxIsClass           101241f0     libmx:libmx.dll
 0002:000001f4       __imp__mxIsA               101241f4     libmx:libmx.dll
 0002:000001f8       __imp__mxIsStruct          101241f8     libmx:libmx.dll
 0002:000001fc       __imp__mxGetNumberOfElements 101241fc     libmx:libmx.dll
 0002:00000200       __imp__mxGetField_700      10124200     libmx:libmx.dll
 0002:00000204       __imp__mxAddField          10124204     libmx:libmx.dll
 0002:00000208       __imp__mxSetField_700      10124208     libmx:libmx.dll
 0002:0000020c       __imp__mxGetClassName      1012420c     libmx:libmx.dll
 0002:00000210       __imp__mxGetCell_700       10124210     libmx:libmx.dll
 0002:00000214       __imp__mxSetCell_700       10124214     libmx:libmx.dll
 0002:00000218       __imp__mxCreateCellMatrix_700 10124218     libmx:libmx.dll
 0002:0000021c       __imp__mxArrayToString     1012421c     libmx:libmx.dll
 0002:00000220       __imp__mxFree              10124220     libmx:libmx.dll
 0002:00000224       __imp__mxCreateDoubleMatrix_700 10124224     libmx:libmx.dll
 0002:00000228       __imp__mxIsLogical         10124228     libmx:libmx.dll
 0002:0000022c       __imp__mxGetScalar         1012422c     libmx:libmx.dll
 0002:00000230       __imp__mxGetString_730     10124230     libmx:libmx.dll
 0002:00000234       __imp__mxGetNaN            10124234     libmx:libmx.dll
 0002:00000238       __imp__mxDuplicateArray    10124238     libmx:libmx.dll
 0002:0000023c       __imp__mxDestroyArray      1012423c     libmx:libmx.dll
 0002:00000240       __imp__mxCreateCellMatrix_730 10124240     libmx:libmx.dll
 0002:00000244       __imp__mxCreateStructMatrix_730 10124244     libmx:libmx.dll
 0002:00000248       __imp__mxCreateString      10124248     libmx:libmx.dll
 0002:0000024c       __imp__mxSetField_730      1012424c     libmx:libmx.dll
 0002:00000250       __imp__mxCreateDoubleMatrix_730 10124250     libmx:libmx.dll
 0002:00000254       __imp__mxCreateDoubleScalar 10124254     libmx:libmx.dll
 0002:00000258       __imp__mxCalloc            10124258     libmx:libmx.dll
 0002:0000025c       \177libmx_NULL_THUNK_DATA  1012425c     libmx:libmx.dll
 0002:00000260       __imp__utRealloc           10124260     libut:libut.dll
 0002:00000264       __imp__utCPUtime           10124264     libut:libut.dll
 0002:00000268       __imp__utVSNprintf         10124268     libut:libut.dll
 0002:0000026c       __imp__utFree              1012426c     libut:libut.dll
 0002:00000270       __imp__utMalloc            10124270     libut:libut.dll
 0002:00000274       __imp__utCalloc            10124274     libut:libut.dll
 0002:00000278       \177libut_NULL_THUNK_DATA  10124278     libut:libut.dll
 0002:0000027c       ___xc_a                    1012427c     MSVCRT:cinitexe.obj
 0002:00000280       ___xc_z                    10124280     MSVCRT:cinitexe.obj
 0002:00000284       ___xi_a                    10124284     MSVCRT:cinitexe.obj
 0002:00000290       ___xi_z                    10124290     MSVCRT:cinitexe.obj
 0002:00000298       __real@41eb36f3ac000000    10124298     c1_CusakisME4901arcs2.obj
 0002:000002a0       __real@41e4415b7ee00000    101242a0     c1_CusakisME4901arcs2.obj
 0002:000002a8       __real@41e74d85bc200000    101242a8     c1_CusakisME4901arcs2.obj
 0002:000002b0       __real@41eca3d28f000000    101242b0     c1_CusakisME4901arcs2.obj
 0002:000002b8       __real@4008000000000000    101242b8     c1_CusakisME4901arcs2.obj
 0002:000002c0       __real@0000000000000000    101242c0     c1_CusakisME4901arcs2.obj
 0002:000002c8       __real@4024000000000000    101242c8     c1_CusakisME4901arcs2.obj
 0002:000002d0       __real@3ff0000000000000    101242d0     c1_CusakisME4901arcs2.obj
 0002:000002d8       __real@4022000000000000    101242d8     c1_CusakisME4901arcs2.obj
 0002:000002e0       __real@4014000000000000    101242e0     c1_CusakisME4901arcs2.obj
 0002:000002e8       __real@4010000000000000    101242e8     c1_CusakisME4901arcs2.obj
 0002:000002f0       __real@4020000000000000    101242f0     c1_CusakisME4901arcs2.obj
 0002:000002f8       __real@4000000000000000    101242f8     c1_CusakisME4901arcs2.obj
 0002:00000300       __real@41eada5c8f000000    10124300     c2_CusakisME4901arcs2.obj
 0002:00000308       __real@41dcf1b4d9800000    10124308     c2_CusakisME4901arcs2.obj
 0002:00000310       __real@41cfa6276e000000    10124310     c2_CusakisME4901arcs2.obj
 0002:00000318       __real@41eb1ab17e200000    10124318     c2_CusakisME4901arcs2.obj
 0002:00000320       __real@41e9df3349200000    10124320     c3_CusakisME4901arcs2.obj
 0002:00000328       __real@41e7e2aa02e00000    10124328     c3_CusakisME4901arcs2.obj
 0002:00000330       __real@41da302d85800000    10124330     c3_CusakisME4901arcs2.obj
 0002:00000338       __real@41e5055333400000    10124338     c3_CusakisME4901arcs2.obj
 0002:00000340       __real@41e4631775200000    10124340     c4_CusakisME4901arcs2.obj
 0002:00000348       __real@41d1992188400000    10124348     c4_CusakisME4901arcs2.obj
 0002:00000350       __real@41ef22f817800000    10124350     c4_CusakisME4901arcs2.obj
 0002:00000358       __real@41d55d7a13800000    10124358     c4_CusakisME4901arcs2.obj
 0002:00000360       __real@41e4a2a196400000    10124360     c5_CusakisME4901arcs2.obj
 0002:00000368       __real@41e032c836000000    10124368     c5_CusakisME4901arcs2.obj
 0002:00000370       __real@41e6dba7b8600000    10124370     c5_CusakisME4901arcs2.obj
 0002:00000378       __real@41b98a97cd000000    10124378     c5_CusakisME4901arcs2.obj
 0002:00000380       __real@3fb5555555555555    10124380     c5_CusakisME4901arcs2.obj
 0002:00000388       __real@41cf569622800000    10124388     c6_CusakisME4901arcs2.obj
 0002:00000390       __real@41cd691c67000000    10124390     c6_CusakisME4901arcs2.obj
 0002:00000398       __real@41e04aa79be00000    10124398     c6_CusakisME4901arcs2.obj
 0002:000003a0       __real@41d6d077e0000000    101243a0     c6_CusakisME4901arcs2.obj
 0002:000003a8       __real@41ef5f0241e00000    101243a8     c7_CusakisME4901arcs2.obj
 0002:000003b0       __real@41e8c56f8b600000    101243b0     c7_CusakisME4901arcs2.obj
 0002:000003b8       __real@41e4506a0fe00000    101243b8     c7_CusakisME4901arcs2.obj
 0002:000003c0       __real@41e1fa9803a00000    101243c0     c7_CusakisME4901arcs2.obj
 0002:000003c8       __real@41e312ab07c00000    101243c8     c8_CusakisME4901arcs2.obj
 0002:000003d0       __real@41cb8de43f800000    101243d0     c8_CusakisME4901arcs2.obj
 0002:000003d8       __real@41e43d499aa00000    101243d8     c8_CusakisME4901arcs2.obj
 0002:000003e0       __real@41dfdf763d400000    101243e0     c8_CusakisME4901arcs2.obj
 0002:000003e8       __real@3fe0000000000000    101243e8     c8_CusakisME4901arcs2.obj
 0002:000003f0       __real@4034000000000000    101243f0     c8_CusakisME4901arcs2.obj
 0002:000003f8       __real@3cb0000000000000    101243f8     c8_CusakisME4901arcs2.obj
 0002:00000400       __real@bff0000000000000    10124400     c8_CusakisME4901arcs2.obj
 0002:00000408       __real@4052c00000000000    10124408     c8_CusakisME4901arcs2.obj
 0002:00000410       __real@0010000000000000    10124410     c8_CusakisME4901arcs2.obj
 0002:00000418       __real@41e5d20ee7e00000    10124418     c9_CusakisME4901arcs2.obj
 0002:00000420       __real@41e001aa3b200000    10124420     c9_CusakisME4901arcs2.obj
 0002:00000428       __real@41b8b67346000000    10124428     c9_CusakisME4901arcs2.obj
 0002:00000430       __real@41ca63f48c800000    10124430     c9_CusakisME4901arcs2.obj
 0002:00000438       __real@41ea4aac6b400000    10124438     c10_CusakisME4901arcs2.obj
 0002:00000440       __real@41e6f89e1e800000    10124440     c10_CusakisME4901arcs2.obj
 0002:00000448       __real@41ce7e5b5b800000    10124448     c10_CusakisME4901arcs2.obj
 0002:00000450       __real@41e4e05d70600000    10124450     c10_CusakisME4901arcs2.obj
 0002:00000458       __real@401c000000000000    10124458     c10_CusakisME4901arcs2.obj
 0002:00000460       __real@402c000000000000    10124460     c10_CusakisME4901arcs2.obj
 0002:00000468       __real@402a000000000000    10124468     c10_CusakisME4901arcs2.obj
 0002:00000470       __real@41ec685e3d600000    10124470     c11_CusakisME4901arcs2.obj
 0002:00000478       __real@41d57ea14d400000    10124478     c11_CusakisME4901arcs2.obj
 0002:00000480       __real@41e6f26213200000    10124480     c11_CusakisME4901arcs2.obj
 0002:00000488       __real@41ebd0456f600000    10124488     c11_CusakisME4901arcs2.obj
 0002:00000490       __real@41dae5e57d000000    10124490     c12_CusakisME4901arcs2.obj
 0002:00000498       __real@41e93c8da5a00000    10124498     c12_CusakisME4901arcs2.obj
 0002:000004a0       __real@41dc574d20c00000    101244a0     c12_CusakisME4901arcs2.obj
 0002:000004a8       __real@41ebda5bb0400000    101244a8     c12_CusakisME4901arcs2.obj
 0002:000004b0       __real@4030000000000000    101244b0     c12_CusakisME4901arcs2.obj
 0002:000004b8       __real@41ea45a012a00000    101244b8     c13_CusakisME4901arcs2.obj
 0002:000004c0       __real@41de1bd2f8000000    101244c0     c13_CusakisME4901arcs2.obj
 0002:000004c8       __real@41e674b66e800000    101244c8     c13_CusakisME4901arcs2.obj
 0002:000004d0       __real@41d930b3cd000000    101244d0     c13_CusakisME4901arcs2.obj
 0002:000004d8       __real@41da22412b800000    101244d8     c14_CusakisME4901arcs2.obj
 0002:000004e0       __real@41e5a4e469800000    101244e0     c14_CusakisME4901arcs2.obj
 0002:000004e8       __real@41e419378ce00000    101244e8     c14_CusakisME4901arcs2.obj
 0002:000004f0       __real@41edccc325a00000    101244f0     c14_CusakisME4901arcs2.obj
 0002:000004f8       __real@4018000000000000    101244f8     c14_CusakisME4901arcs2.obj
 0002:00000500       __real@41dacfdf06800000    10124500     c15_CusakisME4901arcs2.obj
 0002:00000508       __real@41d3308c51400000    10124508     c15_CusakisME4901arcs2.obj
 0002:00000510       __real@41e0f58e46200000    10124510     c15_CusakisME4901arcs2.obj
 0002:00000518       __real@41c39553af000000    10124518     c15_CusakisME4901arcs2.obj
 0002:00000520       __real@41e2439b73c00000    10124520     c16_CusakisME4901arcs2.obj
 0002:00000528       __real@41d191eeee000000    10124528     c16_CusakisME4901arcs2.obj
 0002:00000530       __real@41d93fef84400000    10124530     c16_CusakisME4901arcs2.obj
 0002:00000538       __real@41e31f9749200000    10124538     c16_CusakisME4901arcs2.obj
 0002:00000540       __real@41cc3c3972800000    10124540     c17_CusakisME4901arcs2.obj
 0002:00000548       __real@41efa7fb0cc00000    10124548     c17_CusakisME4901arcs2.obj
 0002:00000550       __real@41ee191d4dc00000    10124550     c17_CusakisME4901arcs2.obj
 0002:00000558       __real@41d3c5018e800000    10124558     c17_CusakisME4901arcs2.obj
 0002:00000560       __real@41dfc63d36400000    10124560     c18_CusakisME4901arcs2.obj
 0002:00000568       __real@41d576c144000000    10124568     c18_CusakisME4901arcs2.obj
 0002:00000570       __real@41dac14af3000000    10124570     c18_CusakisME4901arcs2.obj
 0002:00000578       __real@41dce502f6000000    10124578     c18_CusakisME4901arcs2.obj
 0002:00000580       __real@41b1a1a219000000    10124580     c19_CusakisME4901arcs2.obj
 0002:00000588       __real@41d1ffb6b9000000    10124588     c19_CusakisME4901arcs2.obj
 0002:00000590       __real@41e5af4979400000    10124590     c19_CusakisME4901arcs2.obj
 0002:00000598       __real@41dde7e324400000    10124598     c19_CusakisME4901arcs2.obj
 0002:000005a0       __real@4038000000000000    101245a0     c19_CusakisME4901arcs2.obj
 0002:000005a8       __real@41cab46aa5000000    101245a8     c20_CusakisME4901arcs2.obj
 0002:000005b0       __real@41ca482619800000    101245b0     c20_CusakisME4901arcs2.obj
 0002:000005b8       __real@41ede1c958400000    101245b8     c20_CusakisME4901arcs2.obj
 0002:000005c0       __real@41ec210361600000    101245c0     c20_CusakisME4901arcs2.obj
 0002:000005c8       __real@41e0357cba400000    101245c8     c21_CusakisME4901arcs2.obj
 0002:000005d0       __real@41e296adf7c00000    101245d0     c21_CusakisME4901arcs2.obj
 0002:000005d8       __real@41e3493c0aa00000    101245d8     c21_CusakisME4901arcs2.obj
 0002:000005e0       __real@41ea13b4dc800000    101245e0     c21_CusakisME4901arcs2.obj
 0002:000005e8       __real@41ba15d8dc000000    101245e8     c22_CusakisME4901arcs2.obj
 0002:000005f0       __real@41dec1fb47400000    101245f0     c22_CusakisME4901arcs2.obj
 0002:000005f8       __real@41e8729751000000    101245f8     c22_CusakisME4901arcs2.obj
 0002:00000600       __real@41ef15656e800000    10124600     c22_CusakisME4901arcs2.obj
 0002:00000608       __real@3f847ae147ae147b    10124608     c22_CusakisME4901arcs2.obj
 0002:00000610       __real@41efae6c12000000    10124610     c23_CusakisME4901arcs2.obj
 0002:00000618       __real@41af440aa4000000    10124618     c23_CusakisME4901arcs2.obj
 0002:00000620       __real@41edfb236c200000    10124620     c23_CusakisME4901arcs2.obj
 0002:00000628       __real@41daf81fa6400000    10124628     c23_CusakisME4901arcs2.obj
 0002:00000630       __real@400921fb54442d18    10124630     c23_CusakisME4901arcs2.obj
 0002:00000638       __real@4066800000000000    10124638     c23_CusakisME4901arcs2.obj
 0002:00000640       __real@41e5972e8b200000    10124640     c24_CusakisME4901arcs2.obj
 0002:00000648       __real@41b9dd4dde000000    10124648     c24_CusakisME4901arcs2.obj
 0002:00000650       __real@41e37925f2000000    10124650     c24_CusakisME4901arcs2.obj
 0002:00000658       __real@4187bbe948000000    10124658     c24_CusakisME4901arcs2.obj
 0002:00000660       __real@41daaeaaac000000    10124660     c25_CusakisME4901arcs2.obj
 0002:00000668       __real@41d9dfc716400000    10124668     c25_CusakisME4901arcs2.obj
 0002:00000670       __real@41e732a54c600000    10124670     c25_CusakisME4901arcs2.obj
 0002:00000678       __real@41e24689d4c00000    10124678     c25_CusakisME4901arcs2.obj
 0002:00000680       __real@41d8a088a4400000    10124680     c26_CusakisME4901arcs2.obj
 0002:00000688       __real@41d2aa9ec5c00000    10124688     c26_CusakisME4901arcs2.obj
 0002:00000690       __real@41e9b75701c00000    10124690     c26_CusakisME4901arcs2.obj
 0002:00000698       __real@41e6a8a153200000    10124698     c26_CusakisME4901arcs2.obj
 0002:000006a0       __real@41dc941230400000    101246a0     c31_CusakisME4901arcs2.obj
 0002:000006a8       __real@41e0941e68800000    101246a8     c31_CusakisME4901arcs2.obj
 0002:000006b0       __real@41a75c710a000000    101246b0     c31_CusakisME4901arcs2.obj
 0002:000006b8       __real@41d5e4e05d800000    101246b8     c31_CusakisME4901arcs2.obj
 0002:000006c0       __real@c0e0000000000000    101246c0     c31_CusakisME4901arcs2.obj
 0002:000006c8       __real@40e0000000000000    101246c8     c31_CusakisME4901arcs2.obj
 0002:000006d0       __real@4028000000000000    101246d0     c31_CusakisME4901arcs2.obj
 0002:000006d8       __real@41ef4863b5200000    101246d8     c32_CusakisME4901arcs2.obj
 0002:000006e0       __real@41eda50035600000    101246e0     c32_CusakisME4901arcs2.obj
 0002:000006e8       __real@41bf676d55000000    101246e8     c32_CusakisME4901arcs2.obj
 0002:000006f0       __real@41ed871822a00000    101246f0     c32_CusakisME4901arcs2.obj
 0002:000006f8       __real@406fe00000000000    101246f8     c32_CusakisME4901arcs2.obj
 0002:00000700       __real@4070000000000000    10124700     c32_CusakisME4901arcs2.obj
 0002:00000708       __real@41ed1de95b200000    10124708     c33_CusakisME4901arcs2.obj
 0002:00000710       __real@41d47e1d76000000    10124710     c33_CusakisME4901arcs2.obj
 0002:00000718       __real@41ee4ebe33200000    10124718     c33_CusakisME4901arcs2.obj
 0002:00000720       __real@41e5d0d62ca00000    10124720     c33_CusakisME4901arcs2.obj
 0002:00000728       __real@41e27c6d19600000    10124728     c34_CusakisME4901arcs2.obj
 0002:00000730       __real@41e5ae3fb4c00000    10124730     c34_CusakisME4901arcs2.obj
 0002:00000738       __real@41c799a9e3800000    10124738     c34_CusakisME4901arcs2.obj
 0002:00000740       __real@41d48093d3800000    10124740     c34_CusakisME4901arcs2.obj
 0002:00000748       __real@41ddfa30dc400000    10124748     c35_CusakisME4901arcs2.obj
 0002:00000750       __real@41e72ffc30600000    10124750     c35_CusakisME4901arcs2.obj
 0002:00000758       __real@41d4065dd0800000    10124758     c35_CusakisME4901arcs2.obj
 0002:00000760       __real@41d1f7ec7b400000    10124760     c35_CusakisME4901arcs2.obj
 0002:00000768       __real@4059000000000000    10124768     c35_CusakisME4901arcs2.obj
 0002:00000770       __real@408f400000000000    10124770     c35_CusakisME4901arcs2.obj
 0002:00000778       __real@4069000000000000    10124778     c35_CusakisME4901arcs2.obj
 0002:00000780       __real@3fc0a3d70a3d70a4    10124780     c35_CusakisME4901arcs2.obj
 0002:00000788       _DYNAMIC_DIMENSION_DEF     10124788     CusakisME4901arcs2_sfun_registry.obj
 0002:00000798       __ssBadLevel2InputAccessMsg 10124798     CusakisME4901arcs2_sfun_registry.obj
 0002:00000920       __ssBadLevel2DirectFeedMsg 10124920     CusakisME4901arcs2_sfun_registry.obj
 0002:00000a60       __ssBadLevel2DirectFeedSolutionMsg 10124a60     CusakisME4901arcs2_sfun_registry.obj
 0002:00000ad0       __ssBadLevel2ZeroDirectFeedMsg 10124ad0     CusakisME4901arcs2_sfun_registry.obj
 0002:00000c10       __ssBadLevel2ZeroDirectFeedMsg2 10124c10     CusakisME4901arcs2_sfun_registry.obj
 0002:00000cf8       __real@4153d65940000000    10124cf8     CusakisME4901arcs2_sfun_registry.obj
 0002:00000d00       __real@41e579247a000000    10124d00     CusakisME4901arcs2_sfun.obj
 0002:00000d08       __real@41d059122f800000    10124d08     CusakisME4901arcs2_sfun.obj
 0002:00000d10       __real@41e764ad7c800000    10124d10     CusakisME4901arcs2_sfun.obj
 0002:00000d18       __real@41e1807823600000    10124d18     CusakisME4901arcs2_sfun.obj
 0002:00000d20       __real@41ed08af7be00000    10124d20     CusakisME4901arcs2_sfun.obj
 0002:00000d28       __real@41d03fc151000000    10124d28     CusakisME4901arcs2_sfun.obj
 0002:00000d30       __real@41c439d4aa000000    10124d30     CusakisME4901arcs2_sfun.obj
 0002:00000d38       __real@41ea8f1e72e00000    10124d38     CusakisME4901arcs2_sfun.obj
 0002:00000d40       __real@41ec8d0e5b200000    10124d40     CusakisME4901arcs2_sfun.obj
 0002:00000d48       __real@41daf9fa5a400000    10124d48     CusakisME4901arcs2_sfun.obj
 0002:00000d50       __real@41eb99748a600000    10124d50     CusakisME4901arcs2_sfun.obj
 0002:00000d58       __real@41dfcfd317000000    10124d58     CusakisME4901arcs2_sfun.obj
 0002:00000d60       __real@41dc0dfb84400000    10124d60     CusakisME4901arcs2_sfun.obj
 0002:00000d68       __real@41e7f80671600000    10124d68     CusakisME4901arcs2_sfun.obj
 0002:00000d70       __real@41e56d982ca00000    10124d70     CusakisME4901arcs2_sfun.obj
 0002:00000d78       __real@41eb3e3614000000    10124d78     CusakisME4901arcs2_sfun.obj
 0002:00000d80       ??_C@_00CNPNBAHC@?$AA@     10124d80     sfc_mexmsvc80:sfc_mex.obj
 0002:00000d84       ??_C@_05DGLCPCBN@?$CFsx?$CFd?$AA@ 10124d84     sfc_mexmsvc80:sfc_mex.obj
 0002:00000d8c       ??_C@_02DPKJAMEF@?$CFd?$AA@ 10124d8c     sfc_mexmsvc80:sfc_mex.obj
 0002:00000d90       __real@41f0000000000000    10124d90     sfc_mexmsvc80:sfc_mex.obj
 0002:00000d98       ??_C@_0CC@DJOAOECF@Unknown?5MATLAB?5error?5encountered@ 10124d98     sfc_mexmsvc80:sfc_mex.obj
 0002:00000dbc       ??_C@_0CJ@DAIIKGLI@?$CFs?5in?5?$CFs?5should?5never?5be?5called?5@ 10124dbc     sfc_mexmsvc80:sfc_mex.obj
 0002:00000de8       ??_C@_0CE@ICKLNELB@Error?5calling?5MATLAB?5function?5?8?$CF@ 10124de8     sfc_mexmsvc80:sfc_mex.obj
 0002:00000e0c       ??_C@_02DKCKIIND@?$CFs?$AA@ 10124e0c     sfc_mexmsvc80:sfc_mex.obj
 0002:00000e10       ??_C@_07PHDIELCI@lasterr?$AA@ 10124e10     sfc_mexmsvc80:sfc_mex.obj
 0002:00000e18       ??_C@_09HKCBALOK@embedded?4?$AA@ 10124e18     sfc_mexmsvc80:sfc_mex.obj
 0002:00000e24       ??_C@_06BNJCAIGJ@double?$AA@ 10124e24     sfc_mexmsvc80:sfc_mex.obj
 0002:00000e2c       ??_C@_06EJFMBPJF@single?$AA@ 10124e2c     sfc_mexmsvc80:sfc_mex.obj
 0002:00000e34       ??_C@_06KKKLBFKN@uint64?$AA@ 10124e34     sfc_mexmsvc80:sfc_mex.obj
 0002:00000e3c       ??_C@_05DIFFJEPM@int64?$AA@ 10124e3c     sfc_mexmsvc80:sfc_mex.obj
 0002:00000e44       ??_C@_06PKDKHAMA@uint32?$AA@ 10124e44     sfc_mexmsvc80:sfc_mex.obj
 0002:00000e4c       ??_C@_05GIMEPBJB@int32?$AA@ 10124e4c     sfc_mexmsvc80:sfc_mex.obj
 0002:00000e54       ??_C@_06JNNCGBKK@uint16?$AA@ 10124e54     sfc_mexmsvc80:sfc_mex.obj
 0002:00000e5c       ??_C@_05PCMOAPL@int16?$AA@ 10124e5c     sfc_mexmsvc80:sfc_mex.obj
 0002:00000e64       ??_C@_05BOGOCLFF@uint8?$AA@ 10124e64     sfc_mexmsvc80:sfc_mex.obj
 0002:00000e6c       ??_C@_04DCGBOBJJ@int8?$AA@ 10124e6c     sfc_mexmsvc80:sfc_mex.obj
 0002:00000e74       ??_C@_04KBDJOJNB@?$FL?$CFd?$FN?$AA@ 10124e74     sfc_mexmsvc80:sfc_mex.obj
 0002:00000e7c       ??_C@_0CD@NFPEPNBJ@Cannot?5add?5field?5?$CFs?5to?5struct?5?$CFs@ 10124e7c     sfc_mexmsvc80:sfc_mex.obj
 0002:00000ea0       ??_C@_0CF@PLDCCEBG@Cannot?5get?5field?5?$CFs?5from?5struct?5@ 10124ea0     sfc_mexmsvc80:sfc_mex.obj
 0002:00000ec8       ??_C@_0CO@MFJLJCHI@Struct?5array?5?8?$CFs?8?5does?5not?5have?5@ 10124ec8     sfc_mexmsvc80:sfc_mex.obj
 0002:00000ef8       ??_C@_0DF@IPGEGIDM@Object?5?8?$CFs?8?5is?5not?5a?5struct?3?5can@ 10124ef8     sfc_mexmsvc80:sfc_mex.obj
 0002:00000f30       ??_C@_0BL@KEKJNNL@MATLAB?5expression?5?8?$CFs?8?5?$CFs?4?$AA@ 10124f30     sfc_mexmsvc80:sfc_mex.obj
 0002:00000f50       ??_C@_0GH@JOEOEBFA@Size?5mismatch?5for?5?8?$CFs?8?5on?5dimens@ 10124f50     sfc_mexmsvc80:sfc_mex.obj
 0002:00000fb8       ??_C@_04IAGNFIBA@size?$AA@ 10124fb8     sfc_mexmsvc80:sfc_mex.obj
 0002:00000fc0       ??_C@_0DN@DNLDLJNN@is?5not?5of?5the?5correct?5class?3?5exp@ 10124fc0     sfc_mexmsvc80:sfc_mex.obj
 0002:00001000       ??_C@_06POLMGHPK@isreal?$AA@ 10125000     sfc_mexmsvc80:sfc_mex.obj
 0002:00001008       ??_C@_0CC@EDDDCJDC@is?5not?5of?5the?5correct?5complexnes@ 10125008     sfc_mexmsvc80:sfc_mex.obj
 0002:0000102c       ??_C@_0CB@POBCEEOP@is?5not?5of?5the?5correct?5sparseness@ 1012502c     sfc_mexmsvc80:sfc_mex.obj
 0002:00001050       ??_C@_0CC@JOFDGEBC@is?5not?5of?5the?5correct?5numerictyp@ 10125050     sfc_mexmsvc80:sfc_mex.obj
 0002:00001074       ??_C@_07MIMONDDE@isequal?$AA@ 10125074     sfc_mexmsvc80:sfc_mex.obj
 0002:0000107c       ??_C@_0M@NAPEIPJI@numerictype?$AA@ 1012507c     sfc_mexmsvc80:sfc_mex.obj
 0002:00001088       ??_C@_0BN@IMIABIKK@is?5not?5of?5the?5correct?5fimath?$AA@ 10125088     sfc_mexmsvc80:sfc_mex.obj
 0002:000010a8       ??_C@_06LJOKAFHF@fimath?$AA@ 101250a8     sfc_mexmsvc80:sfc_mex.obj
 0002:000010b0       ??_C@_0EP@IAFBLFNF@Stateflow?5Internal?5Error?3?5?6Error@ 101250b0     sfc_mexmsvc80:sfc_mex.obj
 0002:00001100       ??_C@_02GFKODMMF@sf?$AA@   10125100     sfc_mexmsvc80:sfc_mex.obj
 0002:00001104       ??_C@_08MJJBNONC@mxDecode?$AA@ 10125104     sfc_mexmsvc80:sfc_mex.obj
 0002:00001110       ??_C@_0GH@OOBFJADG@Simulation?5stopped?5due?5to?5out?5of@ 10125110     sfc_mexmsvc80:sfc_mex.obj
 0002:00001178       ??_C@_0HC@JODLBNFO@Simulation?5stopped?5due?5to?5size?5m@ 10125178     sfc_mexmsvc80:sfc_mex.obj
 0002:000011f0       ??_C@_0HC@PPOAOPGB@Simulation?5stopped?5due?5to?5size?5m@ 101251f0     sfc_mexmsvc80:sfc_mex.obj
 0002:00001268       ??_C@_0JM@OFMOAAGL@Simulation?5stopped?5due?5to?5size?5m@ 10125268     sfc_mexmsvc80:sfc_mex.obj
 0002:00001308       ??_C@_0KC@ODCGHMPH@Simulation?5stopped?5due?5to?5size?5o@ 10125308     sfc_mexmsvc80:sfc_mex.obj
 0002:000013b0       ??_C@_0GO@BKNPNGBP@Subscripted?5assignment?5dimension@ 101253b0     sfc_mexmsvc80:sfc_mex.obj
 0002:00001420       ??_C@_0DJ@MEDANBMA@Enable?5debugging?5to?5pinpoint?5the@ 10125420     sfc_mexmsvc80:sfc_mex.obj
 0002:0000145c       ??_C@_01CLKCMJKC@?5?$AA@   1012545c     sfc_mexmsvc80:sfc_mex.obj
 0002:00001460       ??_C@_0BAO@DDKKHLGF@Matrix?$CImatrix?$CJ?5subscript?5turned?5@ 10125460     sfc_mexmsvc80:sfc_mex.obj
 0002:00001570       ??_C@_0BAO@MGKOAKHL@Vector?$CIvector?$CJ?5subscript?5turned?5@ 10125570     sfc_mexmsvc80:sfc_mex.obj
 0002:00001680       ??_C@_0FA@KAHDAHHI@Cannot?5determine?5the?5exact?5numbe@ 10125680     sfc_mexmsvc80:sfc_mex.obj
 0002:000016d0       ??_C@_0FC@HJKNPCCF@Negative?5value?5detected?4?5Enable?5@ 101256d0     sfc_mexmsvc80:sfc_mex.obj
 0002:00001724       ??_C@_0DK@JJKHINMK@Overflow?5detected?4?5Enable?5debugg@ 10125724     sfc_mexmsvc80:sfc_mex.obj
 0002:00001760       ??_C@_0EA@POIJMBCP@Divide?5by?5zero?5detected?4?5Enable?5@ 10125760     sfc_mexmsvc80:sfc_mex.obj
 0002:000017a0       ??_C@_0EK@CFEMECLL@Nonconforming?5enum?5value?5detecte@ 101257a0     sfc_mexmsvc80:sfc_mex.obj
 0002:000017f0       ??_C@_0EE@BPGAOMO@Size?5mismatch?5for?5MATLAB?5express@ 101257f0     sfc_mexmsvc80:sfc_mex.obj
 0002:00001838       ??_C@_0EJ@KLNPHOFG@Dimension?5of?5fixed?5size?5one?5?$CI1?$CJ?5@ 10125838     sfc_mexmsvc80:sfc_mex.obj
 0002:00001884       ??_C@_07JFPGMOK@fprintf?$AA@ 10125884     sfc_mexmsvc80:sfc_mex.obj
 0002:00001890       ??_C@_0FE@EHCFPDEG@In?5MATLAB?5expression?5?8?$CFs?8?0?5field@ 10125890     sfc_mexmsvc80:sfc_mex.obj
 0002:000018e4       ??_C@_0DE@IJIFCHLH@In?5MATLAB?5expression?5?8?$CFs?8?0?5field@ 101258e4     sfc_mexmsvc80:sfc_mex.obj
 0002:00001918       ??_C@_0FK@JKPMKGDE@MATLAB?5expression?5?8?$CFs?8?5does?5not?5@ 10125918     sfc_mexmsvc80:sfc_mex.obj
 0002:00001974       ??_C@_06PBJBIPGK@struct?$AA@ 10125974     sfc_mexmsvc80:sfc_mex.obj
 0002:0000197c       ??_C@_0O@NFNPPCGN@isfimathlocal?$AA@ 1012597c     sfc_mexmsvc80:sfc_mex.obj
 0002:0000198c       ??_C@_0M@MLCGNPLD@embedded?4fi?$AA@ 1012598c     sfc_mexmsvc80:sfc_mex.obj
 0002:00001998       ??_C@_0M@EGMNDJHO@?$CFs?5?$DN?5?$CF?415g?6?$AA@ 10125998     sfc_mexmsvc80:sfc_mex.obj
 0002:000019a4       ??_C@_03OFAPEBGM@?$CFs?6?$AA@ 101259a4     sfc_mexmsvc80:sfc_mex.obj
 0002:000019a8       ??_C@_0CL@LLBJDFID@failed?5sf_assertion?5in?5?$CFs?5at?5lin@ 101259a8     sfc_mexmsvc80:sfc_mex.obj
 0002:000019d8       ??_C@_0EJ@MIHEOKKA@?8?$CFs?8?3?5Array?5with?5number?5of?5dimen@ 101259d8     sfc_mexmsvc80:sfc_mex.obj
 0002:00001a24       ??_C@_09JCLLFAHO@sfc_mex?4c?$AA@ 10125a24     sfc_mexmsvc80:sfc_mex.obj
 0002:00001a30       ??_C@_0O@FCFMOEOA@aNumDims?5?$DO?$DN?50?$AA@ 10125a30     sfc_mexmsvc80:sfc_mex.obj
 0002:00001a40       ??_C@_0CK@KDIMGCCA@?8?$CFs?8?3?5Sparse?5matrices?5are?5not?5su@ 10125a40     sfc_mexmsvc80:sfc_mex.obj
 0002:00001a6c       ??_C@_0CI@KBLJAMNB@MATLAB?5expression?5?8?$CFs?8?5is?5not?5nu@ 10125a6c     sfc_mexmsvc80:sfc_mex.obj
 0002:00001a94       ??_C@_0P@LCMMCGDM@aSrcMx?5?$CB?$DN?5NULL?$AA@ 10125a94     sfc_mexmsvc80:sfc_mex.obj
 0002:00001aa8       ??_C@_0EI@HJNNACGI@Eval?5of?5MATLAB?5expression?5?8?$CFs?8?5i@ 10125aa8     sfc_mexmsvc80:sfc_mex.obj
 0002:00001af0       ??_C@_0DM@BJICAGGK@Stateflow?5currently?5only?5support@ 10125af0     sfc_mexmsvc80:sfc_mex.obj
 0002:00001b2c       ??_C@_05LAPONLG@false?$AA@ 10125b2c     sfc_mexmsvc80:sfc_mex.obj
 0002:00001b34       ??_C@_03LHCJEHON@nan?$AA@  10125b34     sfc_mexmsvc80:sfc_mex.obj
 0002:00001b38       ??_C@_04BHIIPFEC@base?$AA@ 10125b38     sfc_mexmsvc80:sfc_mex.obj
 0002:00001b40       ??_C@_06PLMANNP@evalin?$AA@ 10125b40     sfc_mexmsvc80:sfc_mex.obj
 0002:00001b48       ??_C@_06GFECGKEO@caller?$AA@ 10125b48     sfc_mexmsvc80:sfc_mex.obj
 0002:00001b50       ??_C@_0CM@LOMLNLMC@Invalid?5workspace?5type?5for?5sf_ma@ 10125b50     sfc_mexmsvc80:sfc_mex.obj
 0002:00001b7c       ??_C@_01GBGANLPD@0?$AA@    10125b7c     sfc_mexmsvc80:sfc_mex.obj
 0002:00001b80       ??_C@_06FJKEMHGD@global?$AA@ 10125b80     sfc_mexmsvc80:sfc_mex.obj
 0002:00001b88       ??_C@_0BH@HNIMIIFD@Unknown?5workspace?5type?$AA@ 10125b88     sfc_mexmsvc80:sfc_mex.obj
 0002:00001ba0       ??_C@_08KHPDDPHG@getfield?$AA@ 10125ba0     sfc_mexmsvc80:sfc_mex.obj
 0002:00001bac       ??_C@_05LPIJGKJ@Value?$AA@ 10125bac     sfc_mexmsvc80:sfc_mex.obj
 0002:00001bb4       ??_C@_0DA@IPMLFPJI@MATLAB?5expression?5?8?$CFs?8?5could?5not@ 10125bb4     sfc_mexmsvc80:sfc_mex.obj
 0002:00001be8       ??_C@_0EB@HHPLBHBA@Parameter?5value?5out?5of?5bounds?4?5?$CF@ 10125be8     sfc_mexmsvc80:sfc_mex.obj
 0002:00001c2c       ??_C@_0CB@DBMOOMDL@Unsupported?5class?5type?5?$CFs?5for?5?$CFs@ 10125c2c     sfc_mexmsvc80:sfc_mex.obj
 0002:00001c50       ??_C@_0BI@OPNKAIOC@mxIsComplex?$CImxArrayPtr?$CJ?$AA@ 10125c50     sfc_mexmsvc80:sfc_mex.obj
 0002:00001c68       ??_C@_0GA@OFLPCMBM@Stateflow?5Runtime?5Warning?3?5Loss?5@ 10125c68     sfc_mexmsvc80:sfc_mex.obj
 0002:00001cc8       __real@3810000000000000    10125cc8     sfc_mexmsvc80:sfc_mex.obj
 0002:00001cd0       __real@47efffffe0000000    10125cd0     sfc_mexmsvc80:sfc_mex.obj
 0002:00001cd8       __real@c060000000000000    10125cd8     sfc_mexmsvc80:sfc_mex.obj
 0002:00001ce0       __real@405fc00000000000    10125ce0     sfc_mexmsvc80:sfc_mex.obj
 0002:00001ce8       __real@40dfffc000000000    10125ce8     sfc_mexmsvc80:sfc_mex.obj
 0002:00001cf0       __real@40efffe000000000    10125cf0     sfc_mexmsvc80:sfc_mex.obj
 0002:00001cf8       __real@c1e0000000000000    10125cf8     sfc_mexmsvc80:sfc_mex.obj
 0002:00001d00       __real@41dfffffffc00000    10125d00     sfc_mexmsvc80:sfc_mex.obj
 0002:00001d08       __real@41efffffffe00000    10125d08     sfc_mexmsvc80:sfc_mex.obj
 0002:00001d10       ??_C@_0DO@JIJMNCAH@Class?5mismatch?5for?5variable?5?8?$CFs?8@ 10125d10     sfc_mexmsvc80:sfc_mex.obj
 0002:00001d50       ??_C@_03BBKEAIF@?$DP?$DP?$DP?$AA@ 10125d50     sfc_mexmsvc80:sfc_mex.obj
 0002:00001d54       ??_C@_0DE@HICLJLJO@Assignment?5of?5complex?5data?5to?5no@ 10125d54     sfc_mexmsvc80:sfc_mex.obj
 0002:00001d88       ??_C@_0CF@NHFFCIEB@MATLAB?5function?5?8?$CFs?8?5returned?5NU@ 10125d88     sfc_mexmsvc80:sfc_mex.obj
 0002:00001db0       __real@4f800000            10125db0     sfc_mexmsvc80:sfc_mex.obj
 0002:00001db8       ??_C@_0GP@JPKMBIEI@Array?5bounds?5error?5in?5MATLAB?5exp@ 10125db8     sfc_mexmsvc80:sfc_mex.obj
 0002:00001e28       ??_C@_0P@FLJFOPHI@pIndex?$FLi?$FN?5?$DO?$DN?50?$AA@ 10125e28     sfc_mexmsvc80:sfc_mex.obj
 0002:00001e38       ??_C@_0DI@IGEABFHB@MATLAB?5expression?5?8?$CFs?8?5has?5?$CFd?5di@ 10125e38     sfc_mexmsvc80:sfc_mex.obj
 0002:00001e70       ??_C@_0L@EFLJKPA@mxArrayPtr?$AA@ 10125e70     sfc_mexmsvc80:sfc_mex.obj
 0002:00001e7c       ??_C@_0CK@FHKKOEPH@numDims?5?$DO?$DN?50?5?$CG?$CG?5numDims?5?$DM?$DN?5MAX_D@ 10125e7c     sfc_mexmsvc80:sfc_mex.obj
 0002:00001ea8       ??_C@_0EM@MPIDLJBF@MATLAB?5expression?5?8?$CFs?8?5subscript@ 10125ea8     sfc_mexmsvc80:sfc_mex.obj
 0002:00001ef4       ??_C@_04IGKKBJEE@?$DN?$CFg?$DL?$AA@ 10125ef4     sfc_mexmsvc80:sfc_mex.obj
 0002:00001efc       ??_C@_01PKGAHCOL@?$CJ?$AA@ 10125efc     sfc_mexmsvc80:sfc_mex.obj
 0002:00001f00       ??_C@_03LEIBKMN@?0?$CFd?$AA@ 10125f00     sfc_mexmsvc80:sfc_mex.obj
 0002:00001f04       ??_C@_03IECKINJK@?$CI?$CFd?$AA@ 10125f04     sfc_mexmsvc80:sfc_mex.obj
 0002:00001f08       ??_C@_0FB@HKJNNBFK@Stateflow?5ml?5type?5data?5?8?$CFs?8?5subs@ 10125f08     sfc_mexmsvc80:sfc_mex.obj
 0002:00001f5c       ??_C@_0CN@HPHHCDPK@Stateflow?5ml?5type?5data?5?8?$CFs?8?5is?5n@ 10125f5c     sfc_mexmsvc80:sfc_mex.obj
 0002:00001f8c       ??_C@_0CG@JIOBALFE@Stateflow?5ml?5type?5data?5?8?$CFs?8?5is?5e@ 10125f8c     sfc_mexmsvc80:sfc_mex.obj
 0002:00001fb4       ??_C@_0BD@GAHDCPBG@mxArrayPtr?5?$CB?$DN?5NULL?$AA@ 10125fb4     sfc_mexmsvc80:sfc_mex.obj
 0002:00001fc8       ??_C@_0CF@HCINMAFF@result?5?$DN?5mxCreateDoubleScalar?$CIva@ 10125fc8     sfc_mexmsvc80:sfc_mex.obj
 0002:00001ff0       ??_C@_0BF@GAJKLFOH@fixpt_lower_mx_array?$AA@ 10125ff0     sfc_mexmsvc80:sfc_mex.obj
 0002:00002008       ??_C@_02FINOOIBE@Cg?$AA@   10126008     sfc_mexmsvc80:sfc_mex.obj
 0002:0000200c       ??_C@_09GIFEIFFL@sfprivate?$AA@ 1012600c     sfc_mexmsvc80:sfc_sf.obj
 0002:00002018       ??_C@_0CC@JDELABLI@get_machine_and_chart_file_numbe@ 10126018     sfc_mexmsvc80:sfc_sf.obj
 0002:0000203c       ??_C@_0BO@JCKKMPIB@get_sfun_block_specialization?$AA@ 1012603c     sfc_mexmsvc80:sfc_sf.obj
 0002:00002060       ??_C@_0FP@OGBKADON@The?5chart?5name?5?4?4?4?$CFs?5is?5not?5pres@ 10126060     sfc_mexmsvc80:sfc_sf.obj
 0002:000020c0       ??_C@_0FM@KEMGDKHM@The?5chart?5name?5?$CFs?5is?5not?5present@ 101260c0     sfc_mexmsvc80:sfc_sf.obj
 0002:0000211c       ??_C@_0BD@NMFAPBEK@mdlInitializeSizes?$AA@ 1012611c     sfc_mexmsvc80:sfc_sf.obj
 0002:00002130       ??_C@_06EJFCAODB@sfc_sf?$AA@ 10126130     sfc_mexmsvc80:sfc_sf.obj
 0002:00002138       ??_C@_0BJ@PBIFPMMD@mdlInitializeSampleTimes?$AA@ 10126138     sfc_mexmsvc80:sfc_sf.obj
 0002:00002158       ??_C@_0FI@CPPGBPPK@Stateflow?5Internal?5Error?3?5?6Error@ 10126158     sfc_mexmsvc80:sfc_sf.obj
 0002:000021b0       ??_C@_0CN@GACCLMJH@preload_infomatman_for_rtw_optim@ 101261b0     sfc_mexmsvc80:sfc_sf.obj
 0002:000021e0       ??_C@_07CFINJGKH@Private?$AA@ 101261e0     sfc_mexmsvc80:sfc_sf.obj
 0002:000021e8       ??_C@_0EK@MLFDFPLJ@Stateflow?5Internal?5Error?3?5?6Inter@ 101261e8     sfc_mexmsvc80:sfc_sf.obj
 0002:00002234       ??_C@_0BA@OAHFHIKJ@updateBuildInfo?$AA@ 10126234     sfc_mexmsvc80:sfc_sf.obj
 0002:00002244       ??_C@_0BG@PNKGMGHF@rtw_optimization_info?$AA@ 10126244     sfc_mexmsvc80:sfc_sf.obj
 0002:00002260       ??_C@_0GC@KEKNFKIJ@Stateflow?5Internal?5Error?3?5?6rtw_o@ 10126260     sfc_mexmsvc80:sfc_sf.obj
 0002:000022c4       ??_C@_0BA@PHPHFLPF@chart_inlinable?$AA@ 101262c4     sfc_mexmsvc80:sfc_sf.obj
 0002:000022d8       ??_C@_0MB@KGDKCEKF@Stateflow?5Internal?5Error?3?5?6Numbe@ 101262d8     sfc_mexmsvc80:sfc_sf.obj
 0002:000023a0       ??_C@_0GN@DNCJEGHD@Stateflow?5Internal?5Error?3?5?6Error@ 101263a0     sfc_mexmsvc80:sfc_sf.obj
 0002:00002410       ??_C@_0CA@GOKFFBBO@outputEventsWithMultipleCallers?$AA@ 10126410     sfc_mexmsvc80:sfc_sf.obj
 0002:00002430       ??_C@_0LH@NDHODBLK@Stateflow?5Internal?5Error?3?5?6Numbe@ 10126430     sfc_mexmsvc80:sfc_sf.obj
 0002:000024e8       ??_C@_0BB@GEEDBOGK@reusable_outputs?$AA@ 101264e8     sfc_mexmsvc80:sfc_sf.obj
 0002:00002500       ??_C@_0II@FEBCOBGA@Stateflow?5Internal?5Error?3?5?6Numbe@ 10126500     sfc_mexmsvc80:sfc_sf.obj
 0002:00002588       ??_C@_0BG@HMMHPAKE@expressionable_inputs?$AA@ 10126588     sfc_mexmsvc80:sfc_sf.obj
 0002:000025a0       ??_C@_0BB@MBBOKNEL@listen_for_ctrlc?$AA@ 101265a0     sfc_mexmsvc80:sfc_sf.obj
 0002:000025b4       ??_C@_03LOANPFAI@mex?$AA@  101265b4     sfc_mexmsvc80:sfc_sf.obj
 0002:000025b8       ??_C@_07HLHKBCBI@sfdebug?$AA@ 101265b8     sfc_mexmsvc80:sfc_sf.obj
 0002:000025c0       ??_C@_07MFNNEMOJ@drawnow?$AA@ 101265c0     sfc_mexmsvc80:sfc_sf.obj
 0002:000025c8       __real@3fd3333333333333    101265c8     sfc_mexmsvc80:sfc_sf.obj
 0002:000025d0       ??_C@_0DG@OJBAPEMA@Internal?5Error?3?5paramsIndex?5?$DN?5?$CFd@ 101265d0     sfc_mexmsvc80:sfc_sf.obj
 0002:00002608       ??_C@_0BAI@GPDPHGCD@Cannot?5broadcast?5function?5call?5o@ 10126608     sfc_mexmsvc80:sfc_sf.obj
 0002:00002710       ??_C@_0BBC@NGKHEJAF@Cannot?5enable?1disable?5function?5c@ 10126710     sfc_mexmsvc80:sfc_sf.obj
 0002:00002824       ??_C@_08HDNBGBNP@bitWidth?$AA@ 10126824     sfc_mexmsvc80:sfc_sf.obj
 0002:00002830       ??_C@_0BG@MDDFDLDC@resolveToSignalObject?$AA@ 10126830     sfc_mexmsvc80:sfc_sf.obj
 0002:00002848       ??_C@_07KHBFOCMF@varName?$AA@ 10126848     sfc_mexmsvc80:sfc_sf.obj
 0002:00002850       ??_C@_09LHPHPAOE@isComplex?$AA@ 10126850     sfc_mexmsvc80:sfc_sf.obj
 0002:0000285c       ??_C@_08MLIGMCAH@typeSize?$AA@ 1012685c     sfc_mexmsvc80:sfc_sf.obj
 0002:00002868       ??_C@_0CM@OAMAJMIG@Failed?5to?5register?5type?5?8?$CFs?8?5wit@ 10126868     sfc_mexmsvc80:sfc_sf.obj
 0002:00002894       ??_C@_05OOLPEHEB@void?$CK?$AA@ 10126894     sfc_mexmsvc80:sfc_sf.obj
 0002:0000289c       ??_C@_0BI@OFLHAMB@vector_of_void_pointers?$AA@ 1012689c     sfc_mexmsvc80:sfc_sf.obj
 0002:000028b4       ??_C@_04NBAGBPGE@bias?$AA@ 101268b4     sfc_mexmsvc80:sfc_sf.obj
 0002:000028bc       ??_C@_08EGJNFMPO@exponent?$AA@ 101268bc     sfc_mexmsvc80:sfc_sf.obj
 0002:000028c8       ??_C@_05LAHHKLJI@slope?$AA@ 101268c8     sfc_mexmsvc80:sfc_sf.obj
 0002:000028d0       ??_C@_0L@EMMELFNN@wordLength?$AA@ 101268d0     sfc_mexmsvc80:sfc_sf.obj
 0002:000028dc       ??_C@_08EJEJGLGA@isSigned?$AA@ 101268dc     sfc_mexmsvc80:sfc_sf.obj
 0002:000028e8       ??_C@_0P@MJIKALJF@isScaledDouble?$AA@ 101268e8     sfc_mexmsvc80:sfc_sf.obj
 0002:000028f8       ??_C@_05LFJLPLPG@fixpt?$AA@ 101268f8     sfc_mexmsvc80:sfc_sf.obj
 0002:00002900       ??_C@_07GOBOHMJA@boolean?$AA@ 10126900     sfc_mexmsvc80:sfc_sf.obj
 0002:00002908       ??_C@_04GPMDFGEJ@type?$AA@ 10126908     sfc_mexmsvc80:sfc_sf.obj
 0002:00002910       ??_C@_0O@EIPJLOAA@extModeUpload?$AA@ 10126910     sfc_mexmsvc80:sfc_sf.obj
 0002:00002920       ??_C@_03PLHFFLIH@ptr?$AA@  10126920     sfc_mexmsvc80:sfc_sf.obj
 0002:00002924       ??_C@_0BC@HMCIKMPA@requiredStackSize?$AA@ 10126924     sfc_mexmsvc80:sfc_sf.obj
 0002:00002938       ??_C@_0CB@OCGIMAKA@RegisterMachineParentedDataDwork@ 10126938     sfc_mexmsvc80:sfc_sf.obj
 0002:0000295c       ??_C@_0BD@LFPAKDFC@machineDataVarInfo?$AA@ 1012695c     sfc_mexmsvc80:sfc_sf.obj
 0002:00002970       ??_C@_09GAJBGLOB@dworkInfo?$AA@ 10126970     sfc_mexmsvc80:sfc_sf.obj
 0002:0000297c       _sf_uint_bits_log2         1012697c     sfc_debugmsvc80:sfcdebug.obj
 0002:0000299c       ??_C@_04GKMJMOBJ@disp?$AA@ 1012699c     sfc_debugmsvc80:sfcdebug.obj
 0002:000029a4       ??_C@_0DJ@GEKCDEED@Runtime?5size?5mismatch?5for?5dimens@ 101269a4     sfc_debugmsvc80:sfcdebug.obj
 0002:000029e0       ??_C@_0N@IHFJDIPG@load_machine?$AA@ 101269e0     sfc_debugmsvc80:sfcdebug.obj
 0002:000029f0       ??_C@_0P@NOFOFJMO@ScriptCacheGet?$AA@ 101269f0     sfc_debugmsvc80:sfcdebug.obj
 0002:00002a00       ??_C@_0P@HCIIHGKN@simulationTime?$AA@ 10126a00     sfc_debugmsvc80:sfcdebug.obj
 0002:00002a10       ??_C@_06MBJIKMHL@isSend?$AA@ 10126a10     sfc_debugmsvc80:sfcdebug.obj
 0002:00002a18       ??_C@_0BC@HKLNGIIJ@messagePortNumber?$AA@ 10126a18     sfc_debugmsvc80:sfcdebug.obj
 0002:00002a2c       ??_C@_07KGNNMFDL@chartId?$AA@ 10126a2c     sfc_debugmsvc80:sfcdebug.obj
 0002:00002a34       ??_C@_0BD@LPIHANBP@State?5Entry?5Action?$AA@ 10126a34     sfc_debugmsvc80:sfcdebug.obj
 0002:00002a48       ??_C@_0BE@EDAKPKIF@State?5During?5Action?$AA@ 10126a48     sfc_debugmsvc80:sfcdebug.obj
 0002:00002a5c       ??_C@_0BC@FKIGLKJE@State?5Exit?5Action?$AA@ 10126a5c     sfc_debugmsvc80:sfcdebug.obj
 0002:00002a70       ??_C@_04CGFJFPFD@none?$AA@ 10126a70     sfc_debugmsvc80:sfcdebug.obj
 0002:00002a78       ??_C@_0BC@EPJNNAPA@Transition?5Action?$AA@ 10126a78     sfc_debugmsvc80:sfcdebug.obj
 0002:00002a8c       ??_C@_0BB@ODEGBFLN@Condition?5Action?$AA@ 10126a8c     sfc_debugmsvc80:sfcdebug.obj
 0002:00002aa0       ??_C@_0BO@JIGLNAHF@Transition?5Guarding?5Condition?$AA@ 10126aa0     sfc_debugmsvc80:sfcdebug.obj
 0002:00002ac0       ??_C@_0BD@JMJALEKH@Transition?5Trigger?$AA@ 10126ac0     sfc_debugmsvc80:sfcdebug.obj
 0002:00002ad4       ??_C@_0DI@JGHJOLLJ@INTERNAL?5ERROR?4?5Failed?5assertion@ 10126ad4     sfc_debugmsvc80:sfcdebug.obj
 0002:00002b0c       ??_C@_01EEMJAFIK@?6?$AA@   10126b0c     sfc_debugmsvc80:sfcdebug.obj
 0002:00002b10       ??_C@_0P@HHNBJNJA@context_string?$AA@ 10126b10     sfc_debugmsvc80:sfcdebug.obj
 0002:00002b20       ??_C@_0L@GJHMCDGO@sfcdebug?4c?$AA@ 10126b20     sfc_debugmsvc80:sfcdebug.obj
 0002:00002b2c       ??_C@_0BG@GIIBDCKK@debugInstance?5?$CB?$DN?5NULL?$AA@ 10126b2c     sfc_debugmsvc80:sfcdebug.obj
 0002:00002b44       ??_C@_0DL@EPKGPGLC@?$CImachine?9?$DOdataCompInfo?4fixedPoin@ 10126b44     sfc_debugmsvc80:sfcdebug.obj
 0002:00002b80       ??_C@_0DE@CBCLKIAM@?$CImachine?9?$DOdataCompInfo?4isComplex@ 10126b80     sfc_debugmsvc80:sfcdebug.obj
 0002:00002bb4       ??_C@_0DP@MDOJBFKE@?$CIinstance?9?$DOdataCompInfo?4fixedPoi@ 10126bb4     sfc_debugmsvc80:sfcdebug.obj
 0002:00002bf4       ??_C@_0DM@KFHGIBMB@?$CIinstance?9?$DOdataCompInfo?4fixedPoi@ 10126bf4     sfc_debugmsvc80:sfcdebug.obj
 0002:00002c30       ??_C@_0DF@IIPJPBAH@?$CIinstance?9?$DOdataCompInfo?4isComple@ 10126c30     sfc_debugmsvc80:sfcdebug.obj
 0002:00002c68       ??_C@_0DA@OMEPAHNH@?$CIchart?9?$DOdata?4outputDataFlags?$CJ?4le@ 10126c68     sfc_debugmsvc80:sfcdebug.obj
 0002:00002c98       ??_C@_0CP@JPBDBJBK@?$CIchart?9?$DOdata?4inputDataFlags?$CJ?4len@ 10126c98     sfc_debugmsvc80:sfcdebug.obj
 0002:00002cc8       ??_C@_03KGJNKAJD@lic?$AA@  10126cc8     sfc_debugmsvc80:sfcdebug.obj
 0002:00002ccc       ??_C@_04PNMLDJAE@ense?$AA@ 10126ccc     sfc_debugmsvc80:sfcdebug.obj
 0002:00002cd4       ??_C@_0L@ONMHLBPB@?$CFs?$CFs?$CFslbox?$AA@ 10126cd4     sfc_debugmsvc80:sfcdebug.obj
 0002:00002ce0       ??_C@_04CLOJJEIM@fixe?$AA@ 10126ce0     sfc_debugmsvc80:sfcdebug.obj
 0002:00002ce8       ??_C@_05CBHOIFCP@t_too?$AA@ 10126ce8     sfc_debugmsvc80:sfcdebug.obj
 0002:00002cf0       ??_C@_06MGFNEDEJ@d_poin?$AA@ 10126cf0     sfc_debugmsvc80:sfcdebug.obj
 0002:00002cf8       ??_C@_04HDOCAJNK@?$CFs?$CFs?$AA@ 10126cf8     sfc_debugmsvc80:sfcdebug.obj
 0002:00002d00       ??_C@_04BJBBOLDM@chec?$AA@ 10126d00     sfc_debugmsvc80:sfcdebug.obj
 0002:00002d08       ??_C@_04KNBDLPKC@kout?$AA@ 10126d08     sfc_debugmsvc80:sfcdebug.obj
 0002:00002d10       ??_C@_0BA@FKECJMCE@active_instance?$AA@ 10126d10     sfc_debugmsvc80:sfcdebug.obj
 0002:00002d20       ??_C@_0DD@MJFCMKPO@transCnt?5?$DN?$DN?5instance?9?$DOcvToolIds?4@ 10126d20     sfc_debugmsvc80:sfcdebug.obj
 0002:00002d54       ??_C@_0CO@MONEMJEL@stateCnt?5?$DN?$DN?5instance?9?$DOcvToolIds?4@ 10126d54     sfc_debugmsvc80:sfcdebug.obj
 0002:00002d84       ??_C@_0O@ELHBEDAD@init_debugger?$AA@ 10126d84     sfc_debugmsvc80:sfcdebug.obj
 0002:00002d94       ??_C@_0L@PKOFOKNN@break_here?$AA@ 10126d94     sfc_debugmsvc80:sfcdebug.obj
 0002:00002da0       ??_C@_0BH@KBPHNGCH@script?4activeMachineId?$AA@ 10126da0     sfc_debugmsvc80:sfcdebug.obj
 0002:00002db8       ??_C@_03KCHOJKKI@set?$AA@  10126db8     sfc_debugmsvc80:sfcdebug.obj
 0002:00002dbc       ??_C@_0DD@PKMAPHBF@?$CImachine?9?$DOdata?4watchFlags?$CJ?4lengt@ 10126dbc     sfc_debugmsvc80:sfcdebug.obj
 0002:00002df0       ??_C@_0FE@KLPHIMDI@?$CIchart?9?$DOdata?4watchFlags?$CJ?4length?$DO@ 10126df0     sfc_debugmsvc80:sfcdebug.obj
 0002:00002e44       ??_C@_0BO@GFBPGEIL@bufferSizeGet?5?$DN?$DN?5totalSizeGet?$AA@ 10126e44     sfc_debugmsvc80:sfcdebug.obj
 0002:00002e64       ??_C@_0BO@BEEPOEDP@bufferSizeSet?5?$DN?$DN?5totalSizeSet?$AA@ 10126e64     sfc_debugmsvc80:sfcdebug.obj
 0002:00002e84       ??_C@_0BG@NNAKOPEK@get_script_line_count?$AA@ 10126e84     sfc_debugmsvc80:sfcdebug.obj
 0002:00002e9c       ??_C@_0BJ@GADAHKGG@temporal_threshold_error?$AA@ 10126e9c     sfc_debugmsvc80:sfcdebug.obj
 0002:00002eb8       ??_C@_0BK@KABIOMCC@transition_conflict_error?$AA@ 10126eb8     sfc_debugmsvc80:sfcdebug.obj
 0002:00002ed4       ??_C@_0BK@HLPANOPJ@state_inconsistency_error?$AA@ 10126ed4     sfc_debugmsvc80:sfcdebug.obj
 0002:00002ef0       ??_C@_0BA@PCEGODO@cycle_detection?$AA@ 10126ef0     sfc_debugmsvc80:sfcdebug.obj
 0002:00002f00       ??_C@_0CP@HMOGACCG@Simulation?5stopped?5due?5to?5out?5of@ 10126f00     sfc_debugmsvc80:sfcdebug.obj
 0002:00002f30       ??_C@_0BD@LFFFHIJG@array_bounds_error?$AA@ 10126f30     sfc_debugmsvc80:sfcdebug.obj
 0002:00002f44       ??_C@_0O@IENBAMNA@runtime_error?$AA@ 10126f44     sfc_debugmsvc80:sfcdebug.obj
 0002:00002f54       ??_C@_0CC@EDKHOOPE@Call?5to?5MATLAB?5function?5aborted?3@ 10126f54     sfc_debugmsvc80:sfcdebug.obj
 0002:00002f78       ??_C@_0DJ@JBGHLJFL@Simulation?5stopped?5due?5to?5size?5m@ 10126f78     sfc_debugmsvc80:sfcdebug.obj
 0002:00002fb4       ??_C@_0DJ@EAKPCDBG@Simulation?5stopped?5due?5to?5size?5m@ 10126fb4     sfc_debugmsvc80:sfcdebug.obj
 0002:00002ff0       ??_C@_0GD@BJCLDBKO@Simulation?5stopped?5due?5to?5size?5m@ 10126ff0     sfc_debugmsvc80:sfcdebug.obj
 0002:00003058       ??_C@_0GJ@OHCOIONE@Simulation?5stopped?5due?5to?5size?5o@ 10127058     sfc_debugmsvc80:sfcdebug.obj
 0002:000030c4       ??_C@_0DF@BOMHHCNB@Subscripted?5assignment?5dimension@ 101270c4     sfc_debugmsvc80:sfcdebug.obj
 0002:00003100       ??_C@_0NG@BOPFGKBO@Matrix?$CImatrix?$CJ?5subscript?5turned?5@ 10127100     sfc_debugmsvc80:sfcdebug.obj
 0002:000031d8       ??_C@_0HE@FPEPCMDA@Matrix?$CImatrix?$CJ?5subscript?5turned?5@ 101271d8     sfc_debugmsvc80:sfcdebug.obj
 0002:00003250       ??_C@_0NG@MLJIHJIH@Vector?$CIvector?$CJ?5subscript?5turned?5@ 10127250     sfc_debugmsvc80:sfcdebug.obj
 0002:00003328       ??_C@_0HE@BHPDCNDF@Vector?$CIvector?$CJ?5subscript?5turned?5@ 10127328     sfc_debugmsvc80:sfcdebug.obj
 0002:0000339c       ??_C@_0BL@HKADOJK@Unknown?5runtime?5error?3?5?$CFs?4?$AA@ 1012739c     sfc_debugmsvc80:sfcdebug.obj
 0002:000033b8       ??_C@_0P@FIEIFKHH@dataName?$CB?$DNNULL?$AA@ 101273b8     sfc_debugmsvc80:sfcdebug.obj
 0002:000033c8       ??_C@_0BC@JKFOPCCM@non_integer_error?$AA@ 101273c8     sfc_debugmsvc80:sfcdebug.obj
 0002:000033dc       ??_C@_09MMCAMPEC@nan_error?$AA@ 101273dc     sfc_debugmsvc80:sfcdebug.obj
 0002:000033e8       ??_C@_0P@KGNBONIG@negative_error?$AA@ 101273e8     sfc_debugmsvc80:sfcdebug.obj
 0002:000033f8       ??_C@_0DA@OEGHOJFO@Simulation?5stopped?5due?5to?5divide@ 101273f8     sfc_debugmsvc80:sfcdebug.obj
 0002:00003428       ??_C@_0P@DAGNNBKM@overflow_error?$AA@ 10127428     sfc_debugmsvc80:sfcdebug.obj
 0002:00003438       ??_C@_0BF@IEPBJJM@divide_by_zero_error?$AA@ 10127438     sfc_debugmsvc80:sfcdebug.obj
 0002:00003450       ??_C@_0BC@CNIFONOF@unsafe_enum_error?$AA@ 10127450     sfc_debugmsvc80:sfcdebug.obj
 0002:00003464       ??_C@_0BA@GLGJGIFO@data_loss_error?$AA@ 10127464     sfc_debugmsvc80:sfcdebug.obj
 0002:00003474       ??_C@_0BB@LFNCDKMF@data_range_error?$AA@ 10127474     sfc_debugmsvc80:sfcdebug.obj
 0002:00003488       ??_C@_0FA@OJFHKNAF@Simulation?5stopped?5because?5a?5dat@ 10127488     sfc_debugmsvc80:sfcdebug.obj
 0002:000034d8       ??_C@_0BI@LLOJJCOG@read_before_write_error?$AA@ 101274d8     sfc_debugmsvc80:sfcdebug.obj
 0002:000034f0       ??_C@_0EL@LHLCBPON@objectType?$DN?$DNEVENT_OBJECT?5?$CG?$CG?5obje@ 101274f0     sfc_debugmsvc80:sfcdebug.obj
 0002:0000353c       ??_C@_0CK@BGKNIJPH@Simulation?5stopped?5due?5to?5infini@ 1012753c     sfc_debugmsvc80:sfcdebug.obj
 0002:00003568       ??_C@_0BC@OGHOEIO@draw_message_post?$AA@ 10127568     sfc_debugmsvc80:sfcdebug.obj
 0002:00003580       ??_C@_0EC@EKMLJIIP@strlen?$CItargetName?$CJ?$DMsizeof?$CIdebugI@ 10127580     sfc_debugmsvc80:sfcdebug.obj
 0002:000035c8       ??_C@_0EE@LPPEFNLK@strlen?$CImachineName?$CJ?$DMsizeof?$CIdebug@ 101275c8     sfc_debugmsvc80:sfcdebug.obj
 0002:0000360c       ??_C@_0BO@OEBODAF@charts?9?$DOlength?5?$DM?5charts?9?$DOsize?$AA@ 1012760c     sfc_debugmsvc80:sfcdebug.obj
 0002:0000362c       ??_C@_0P@NDNBPAGO@charts?9?$DOsize?$DO0?$AA@ 1012762c     sfc_debugmsvc80:sfcdebug.obj
 0002:0000363c       ??_C@_09DACGJFPO@terminate?$AA@ 1012763c     sfc_debugmsvc80:sfcdebug.obj
 0002:00003648       ??_C@_0BH@BOIPOAMD@currentoptionalinteger?$AA@ 10127648     sfc_debugmsvc80:sfc_api.obj
 0002:00003660       ??_C@_0BI@KDFLIHKN@currentstatementcontext?$AA@ 10127660     sfc_debugmsvc80:sfc_api.obj
 0002:00003678       ??_C@_0BF@CJJCNHOP@currentstatementinfo?$AA@ 10127678     sfc_debugmsvc80:sfc_api.obj
 0002:00003690       ??_C@_0BA@EEHAMBBL@currentcoverage?$AA@ 10127690     sfc_debugmsvc80:sfc_api.obj
 0002:000036a0       ??_C@_0BD@CPIGBEHM@currentmachinename?$AA@ 101276a0     sfc_debugmsvc80:sfc_api.obj
 0002:000036b4       ??_C@_0BF@MPNFKHIK@currentmachinenumber?$AA@ 101276b4     sfc_debugmsvc80:sfc_api.obj
 0002:000036cc       ??_C@_0BB@EAGFPGEG@currentmachineid?$AA@ 101276cc     sfc_debugmsvc80:sfc_api.obj
 0002:000036e0       ??_C@_0P@LDEJFJKJ@simulationtime?$AA@ 101276e0     sfc_debugmsvc80:sfc_api.obj
 0002:000036f0       ??_C@_0P@CKMPNBM@currenttagtype?$AA@ 101276f0     sfc_debugmsvc80:sfc_api.obj
 0002:00003700       ??_C@_0BH@EMAALFDO@currentactiveeventtype?$AA@ 10127700     sfc_debugmsvc80:sfc_api.obj
 0002:00003718       ??_C@_0BF@BIDFPCPF@currentactiveeventid?$AA@ 10127718     sfc_debugmsvc80:sfc_api.obj
 0002:00003730       ??_C@_0BA@LAPNNELA@currentobjectid?$AA@ 10127730     sfc_debugmsvc80:sfc_api.obj
 0002:00003740       ??_C@_0BB@LLJHHKEI@currenteventtype?$AA@ 10127740     sfc_debugmsvc80:sfc_api.obj
 0002:00003754       ??_C@_0BC@BDADCDEL@currentobjecttype?$AA@ 10127754     sfc_debugmsvc80:sfc_api.obj
 0002:00003768       ??_C@_0BH@HDHFFKCN@currentisminortimestep?$AA@ 10127768     sfc_debugmsvc80:sfc_api.obj
 0002:00003780       ??_C@_0BG@PKFJEKLL@currentinstancehandle?$AA@ 10127780     sfc_debugmsvc80:sfc_api.obj
 0002:00003798       ??_C@_0BG@GJFHKFBJ@currentinstancenumber?$AA@ 10127798     sfc_debugmsvc80:sfc_api.obj
 0002:000037b0       ??_C@_0BD@DKAMMHEE@currentchartnumber?$AA@ 101277b0     sfc_debugmsvc80:sfc_api.obj
 0002:000037c4       ??_C@_0P@EANFOHCD@currentchartid?$AA@ 101277c4     sfc_debugmsvc80:sfc_api.obj
 0002:000037d4       ??_C@_0CC@JILMFDHL@extract_message_post_receive_inf@ 101277d4     sfc_debugmsvc80:sfc_api.obj
 0002:000037f8       ??_C@_06IMFOKBKF@assign?$AA@ 101277f8     sfc_debugmsvc80:sfc_api.obj
 0002:00003800       ??_C@_0BC@CMFMGKCG@set_script_cv_ids?$AA@ 10127800     sfc_debugmsvc80:sfc_api.obj
 0002:00003814       ??_C@_0BE@ONNFKBAC@set_instance_cv_ids?$AA@ 10127814     sfc_debugmsvc80:sfc_api.obj
 0002:00003828       ??_C@_0BE@CDIKCKCD@get_instance_handle?$AA@ 10127828     sfc_debugmsvc80:sfc_api.obj
 0002:0000383c       ??_C@_0BE@GPEMFILK@break_between_times?$AA@ 1012783c     sfc_debugmsvc80:sfc_api.obj
 0002:00003850       ??_C@_0O@KGONFDDG@active_states?$AA@ 10127850     sfc_debugmsvc80:sfc_api.obj
 0002:00003860       ??_C@_0BC@LHALNGBC@state_consistency?$AA@ 10127860     sfc_debugmsvc80:sfc_api.obj
 0002:00003874       ??_C@_0BE@JNDELHDH@transition_conflict?$AA@ 10127874     sfc_debugmsvc80:sfc_api.obj
 0002:00003888       ??_C@_0L@ECJAFPAF@data_range?$AA@ 10127888     sfc_debugmsvc80:sfc_api.obj
 0002:00003894       ??_C@_0O@NAKDKJME@select_charts?$AA@ 10127894     sfc_debugmsvc80:sfc_api.obj
 0002:000038a4       ??_C@_0N@KLDBDGD@select_chart?$AA@ 101278a4     sfc_debugmsvc80:sfc_api.obj
 0002:000038b4       ??_C@_0O@NJPMKBAC@set_animation?$AA@ 101278b4     sfc_debugmsvc80:sfc_api.obj
 0002:000038c4       ??_C@_09FLOFKLFE@set_watch?$AA@ 101278c4     sfc_debugmsvc80:sfc_api.obj
 0002:000038d0       ??_C@_0O@ECMAEPOC@get_script_id?$AA@ 101278d0     sfc_debugmsvc80:sfc_api.obj
 0002:000038e0       ??_C@_0BJ@KFGPCNG@query_script_breakpoints?$AA@ 101278e0     sfc_debugmsvc80:sfc_api.obj
 0002:000038fc       ??_C@_0BJ@CAAHLJNF@clear_script_breakpoints?$AA@ 101278fc     sfc_debugmsvc80:sfc_api.obj
 0002:00003918       ??_C@_0BH@BAILBHDP@add_script_breakpoints?$AA@ 10127918     sfc_debugmsvc80:sfc_api.obj
 0002:00003930       ??_C@_0BH@KAKDDELG@set_script_breakpoints?$AA@ 10127930     sfc_debugmsvc80:sfc_api.obj
 0002:00003948       ??_C@_0BE@GAGDJPKA@set_eml_breakpoints?$AA@ 10127948     sfc_debugmsvc80:sfc_api.obj
 0002:0000395c       ??_C@_0BA@NHOBHLLJ@set_breakpoints?$AA@ 1012795c     sfc_debugmsvc80:sfc_api.obj
 0002:0000396c       ??_C@_0BF@GOGOODJG@break_on_state_entry?$AA@ 1012796c     sfc_debugmsvc80:sfc_api.obj
 0002:00003984       ??_C@_0BJ@FPOJDFBP@break_on_event_broadcast?$AA@ 10127984     sfc_debugmsvc80:sfc_api.obj
 0002:000039a0       ??_C@_0BF@FJBBAFJ@break_on_chart_entry?$AA@ 101279a0     sfc_debugmsvc80:sfc_api.obj
 0002:000039b8       ??_C@_0N@MHHEHLAI@browse_trace?$AA@ 101279b8     sfc_debugmsvc80:sfc_api.obj
 0002:000039c8       ??_C@_0BB@JEAJMJMI@consistency_info?$AA@ 101279c8     sfc_debugmsvc80:sfc_api.obj
 0002:000039dc       ??_C@_04MLCEENPJ@whos?$AA@ 101279dc     sfc_debugmsvc80:sfc_api.obj
 0002:000039e4       ??_C@_0L@LNIDAIN@watch_data?$AA@ 101279e4     sfc_debugmsvc80:sfc_api.obj
 0002:000039f0       ??_C@_0M@JEJMEFEG@browse_data?$AA@ 101279f0     sfc_debugmsvc80:sfc_api.obj
 0002:000039fc       ??_C@_03HNAFFKGA@get?$AA@  101279fc     sfc_debugmsvc80:sfc_api.obj
 0002:00003a00       ??_C@_05LBOHBHFK@close?$AA@ 10127a00     sfc_debugmsvc80:sfc_api.obj
 0002:00003a08       ??_C@_0BM@ICDFOOIE@set_disable_all_breakpoints?$AA@ 10127a08     sfc_debugmsvc80:sfc_api.obj
 0002:00003a24       ??_C@_0BP@IBIALPGH@disable_all_breakpoints_and_go?$AA@ 10127a24     sfc_debugmsvc80:sfc_api.obj
 0002:00003a44       ??_C@_0BJ@BOMFHJBD@is_array_bounds_detected?$AA@ 10127a44     sfc_debugmsvc80:sfc_api.obj
 0002:00003a60       ??_C@_0BC@LKOOEAAH@is_cycle_detected?$AA@ 10127a60     sfc_debugmsvc80:sfc_api.obj
 0002:00003a74       ??_C@_0P@NIBPNIDJ@stop_debugging?$AA@ 10127a74     sfc_debugmsvc80:sfc_api.obj
 0002:00003a84       ??_C@_05ELPHFHOI@break?$AA@ 10127a84     sfc_debugmsvc80:sfc_api.obj
 0002:00003a8c       ??_C@_06PLELHCEK@resume?$AA@ 10127a8c     sfc_debugmsvc80:sfc_api.obj
 0002:00003a94       ??_C@_08OKABEMKO@step_out?$AA@ 10127a94     sfc_debugmsvc80:sfc_api.obj
 0002:00003aa0       ??_C@_09CDNMPCHO@step_over?$AA@ 10127aa0     sfc_debugmsvc80:sfc_api.obj
 0002:00003aac       ??_C@_02KPEDIMCA@go?$AA@   10127aac     sfc_debugmsvc80:sfc_api.obj
 0002:00003ab0       ??_C@_0P@MMCMIGPN@debugger_alive?$AA@ 10127ab0     sfc_debugmsvc80:sfc_api.obj
 0002:00003ac0       ??_C@_0N@GHFBLJDM@machine_load?$AA@ 10127ac0     sfc_debugmsvc80:sfc_api.obj
 0002:00003ad0       ??_C@_0O@GIBFCMLF@chart_visible?$AA@ 10127ad0     sfc_debugmsvc80:sfc_api.obj
 0002:00003ce8       ??_C@_05JEMLEKKA@found?$AA@ 10127ce8     sfc_debugmsvc80:sfc_api.obj
 0002:00003cf0       ??_C@_09KFNMLIAN@sfc_api?4c?$AA@ 10127cf0     sfc_debugmsvc80:sfc_api.obj
 0002:00003cfc       ??_C@_0N@PFBMDOLG@sf_debug_api?$AA@ 10127cfc     sfc_debugmsvc80:sfc_api.obj
 0002:00003d0c       ??_C@_07KEAHHHLK@nrhs?$DN?$DN3?$AA@ 10127d0c     sfc_debugmsvc80:sfc_api.obj
 0002:00003d14       ??_C@_0BC@HOOMKBNL@mxIsChar?$CIprhs?$FL0?$FN?$CJ?$AA@ 10127d14     sfc_debugmsvc80:sfc_api.obj
 0002:00003d28       ??_C@_0BF@NGLAGMHA@mxIsNumeric?$CIprhs?$FL0?$FN?$CJ?$AA@ 10127d28     sfc_debugmsvc80:sfc_api.obj
 0002:00003d40       ??_C@_07IEIELKNG@nrhs?$DO?$DN1?$AA@ 10127d40     sfc_debugmsvc80:sfc_api.obj
 0002:00003d48       ??_C@_07LNBMEGPL@nrhs?$DN?$DN2?$AA@ 10127d48     sfc_debugmsvc80:sfc_api.obj
 0002:00003d50       ??_C@_0BD@DPNMCCEH@nrhs?$DN?$DN1?5?$HM?$HM?5nrhs?$DN?$DN3?$AA@ 10127d50     sfc_debugmsvc80:sfc_api.obj
 0002:00003d64       ??_C@_09FKOBHCEN@nrhs?5?$DN?$DN?52?$AA@ 10127d64     sfc_debugmsvc80:sfc_api.obj
 0002:00003d70       ??_C@_09EMKMAIDO@nrhs?5?$DM?$DN?51?$AA@ 10127d70     sfc_debugmsvc80:sfc_api.obj
 0002:00003d7c       ??_C@_07OLEGOBHN@nrhs?$DN?$DN4?$AA@ 10127d7c     sfc_debugmsvc80:sfc_api.obj
 0002:00003d84       ??_C@_07PCFNNADM@nrhs?$DN?$DN5?$AA@ 10127d84     sfc_debugmsvc80:sfc_api.obj
 0002:00003d8c       ??_C@_07JGDBBFDI@nrhs?$DN?$DN1?$AA@ 10127d8c     sfc_debugmsvc80:sfc_api.obj
 0002:00003d94       ??_C@_07KBNAPCKL@nlhs?$DN?$DN1?$AA@ 10127d94     sfc_debugmsvc80:sfc_api.obj
 0002:00003d9c       ??_C@_08PAMHJLPB@statusOk?$AA@ 10127d9c     sfc_debugmsvc80:sfc_api.obj
 0002:00003da8       ??_C@_07NJHAIDPP@nrhs?$DN?$DN6?$AA@ 10127da8     sfc_debugmsvc80:sfc_api.obj
 0002:00003db0       ??_C@_0L@EMNHGDGL@nlhs?$DN?$DNnrhs?$AA@ 10127db0     sfc_debugmsvc80:sfc_api.obj
 0002:00003dbc       ??_C@_0P@BLJCAHMG@select_objects?$AA@ 10127dbc     sfc_debugmsvc80:sfdb_animation.obj
 0002:00003dcc       ??_C@_06CFKBOPCI@states?$AA@ 10127dcc     sfc_debugmsvc80:sfdb_animation.obj
 0002:00003dd4       ??_C@_0P@KHIIFDEG@instanceHandle?$AA@ 10127dd4     sfc_debugmsvc80:sfdb_animation.obj
 0002:00003de4       ??_C@_0P@DEIGLMOE@instanceNumber?$AA@ 10127de4     sfc_debugmsvc80:sfdb_animation.obj
 0002:00003df4       ??_C@_0N@HACOJJON@instanceName?$AA@ 10127df4     sfc_debugmsvc80:sfdb_animation.obj
 0002:00003e04       ??_C@_0M@BFNIOHPP@chartNumber?$AA@ 10127e04     sfc_debugmsvc80:sfdb_animation.obj
 0002:00003e10       ??_C@_09KMHJEGJ@chartName?$AA@ 10127e10     sfc_debugmsvc80:sfdb_animation.obj
 0002:00003e1c       ??_C@_06OOECHJN@charts?$AA@ 10127e1c     sfc_debugmsvc80:sfdb_animation.obj
 0002:00003e24       ??_C@_0O@LOMGGENK@machineNumber?$AA@ 10127e24     sfc_debugmsvc80:sfdb_animation.obj
 0002:00003e34       ??_C@_09OOJCKABH@machineId?$AA@ 10127e34     sfc_debugmsvc80:sfdb_animation.obj
 0002:00003e40       ??_C@_0M@OCOCCFP@machineName?$AA@ 10127e40     sfc_debugmsvc80:sfdb_animation.obj
 0002:00003e4c       ??_C@_0CN@CCJEMGOM@?$CIinstance?9?$DOsm?4statePack?$CJ?4length?$DO@ 10127e4c     sfc_debugmsvc80:sfdb_animation.obj
 0002:00003e7c       ??_C@_0DC@DKAJIDPA@?$CIinstance?9?$DOsm?4transitionPack?$CJ?4le@ 10127e7c     sfc_debugmsvc80:sfdb_animation.obj
 0002:00003eb0       ??_C@_0BB@EGGLBLCL@sfdb_animation?4c?$AA@ 10127eb0     sfc_debugmsvc80:sfdb_animation.obj
 0002:00003ec4       ??_C@_09ODDKEGMC@cvprivate?$AA@ 10127ec4     sfc_debugmsvc80:cv_sfinterface.obj
 0002:00003ed0       ??_C@_0BB@GDGPIGLB@cv_model_enabled?$AA@ 10127ed0     sfc_debugmsvc80:cv_sfinterface.obj
 0002:00003ee4       ??_C@_09DDDNMFIJ@get_param?$AA@ 10127ee4     sfc_debugmsvc80:cv_sfinterface.obj
 0002:00003ef0       ??_C@_0L@BODNDPN@CoverageId?$AA@ 10127ef0     sfc_debugmsvc80:cv_sfinterface.obj
 0002:00003efc       ??_C@_05IEGMLJMJ@exist?$AA@ 10127efc     sfc_debugmsvc80:cv_sfinterface.obj
 0002:00003f04       ??_C@_02DDEKINOE@cv?$AA@   10127f04     sfc_debugmsvc80:cv_sfinterface.obj
 0002:00003f08       __real@4082c00000000000    10127f08     sfc_debugmsvc80:cv_sfinterface.obj
 0002:00003f10       ??_C@_0O@HGNEKHDK@MatlabVersion?$AA@ 10127f10     sfc_debugmsvc80:cv_sfinterface.obj
 0002:00003f20       ??_C@_0M@IIAIMKFO@status?5?$DN?$DN?50?$AA@ 10127f20     sfc_debugmsvc80:cv_sfinterface.obj
 0002:00003f2c       ??_C@_0BB@ENEMAMMG@cv_sfinterface?4c?$AA@ 10127f2c     sfc_debugmsvc80:cv_sfinterface.obj
 0002:00003f40       ??_C@_0CC@JMPFGLON@mxGetNumberOfElements?$CIplhs?$FL3?$FN?$CJ?$DN?$DN@ 10127f40     sfc_debugmsvc80:cv_sfinterface.obj
 0002:00003f64       ??_C@_0P@MCDOIOOF@plhs?$FL3?$FN?5?$CB?$DNNULL?$AA@ 10127f64     sfc_debugmsvc80:cv_sfinterface.obj
 0002:00003f74       ??_C@_0P@HAMLCBNF@len?$DM?$DNdataCount?$AA@ 10127f74     sfc_debugmsvc80:cv_sfinterface.obj
 0002:00003f84       ??_C@_0BA@FJOAHKLL@len?$DN?$DNtransCount?$AA@ 10127f84     sfc_debugmsvc80:cv_sfinterface.obj
 0002:00003f94       ??_C@_0BA@JELAJLGI@len?$DN?$DNstateCount?$AA@ 10127f94     sfc_debugmsvc80:cv_sfinterface.obj
 0002:00003fa4       ??_C@_0BC@NEFBEIHN@InitChartInstance?$AA@ 10127fa4     sfc_debugmsvc80:cv_sfinterface.obj
 0002:00003fb8       ??_C@_04MMALOABH@cvsf?$AA@ 10127fb8     sfc_debugmsvc80:cv_sfinterface.obj
 0002:00003fc0       ??_C@_0L@GIEKKEHF@InitScript?$AA@ 10127fc0     sfc_debugmsvc80:cv_sfinterface.obj
 0002:00003fcc       ??_C@_08DNDOONPK@sigrange?$AA@ 10127fcc     sfc_debugmsvc80:cv_sfinterface.obj
 0002:00003fd8       ??_C@_0O@KGBGEHIN@MetricEnabled?$AA@ 10127fd8     sfc_debugmsvc80:cv_sfinterface.obj
 0002:00003fe8       ??_C@_0BC@NKPEPJDJ@chart?9?$DOchartId?$CB?$DN0?$AA@ 10127fe8     sfc_debugmsvc80:cv_sfinterface.obj
 0002:00003ffc       ??_C@_02GMHACPFF@?$CFu?$AA@ 10127ffc     sfc_debugmsvc80:sfdb_data_browse.obj
 0002:00004000       ??_C@_02NJPGOMH@?$CFf?$AA@ 10128000     sfc_debugmsvc80:sfdb_data_browse.obj
 0002:00004004       ??_C@_0BD@PCGIEHBF@sfdb_data_browse?4c?$AA@ 10128004     sfc_debugmsvc80:sfdb_data_browse.obj
 0002:00004018       __real@c2a2309ce53fffcd    10128018     sfc_debugmsvc80:sfdb_data_browse.obj
 0002:00004020       ??_C@_0CK@JKBFHDPL@result?5?$DN?5mxCreateDoubleMatrix?$CI1?0@ 10128020     sfc_debugmsvc80:sfdb_data_browse.obj
 0002:0000404c       ??_C@_0DK@FJDNFCNK@result?5?$DN?5mxCreateDoubleMatrix?$CI1?0@ 1012804c     sfc_debugmsvc80:sfdb_data_browse.obj
 0002:00004088       ??_C@_0DL@OAKPHGJG@result?5?$DN?5mxCreateDoubleMatrix?$CI1?0@ 10128088     sfc_debugmsvc80:sfdb_data_browse.obj
 0002:000040c4       ??_C@_0N@MNGHGLAH@isFixedPoint?$AA@ 101280c4     sfc_debugmsvc80:sfdb_data_browse.obj
 0002:000040d4       ??_C@_06DLEPGFEF@format?$AA@ 101280d4     sfc_debugmsvc80:sfdb_data_browse.obj
 0002:000040dc       ??_C@_05MFEJDJP@value?$AA@ 101280dc     sfc_debugmsvc80:sfdb_data_browse.obj
 0002:000040e4       ??_C@_05DCCHDMEJ@scope?$AA@ 101280e4     sfc_debugmsvc80:sfdb_data_browse.obj
 0002:000040ec       ??_C@_02EGCJHIOB@id?$AA@   101280ec     sfc_debugmsvc80:sfdb_data_browse.obj
 0002:000040f0       ??_C@_04PJOLNDGD@data?$AA@ 101280f0     sfc_debugmsvc80:sfdb_data_browse.obj
 0002:000040f8       ??_C@_06LIBBAANI@len?$DN?$DN1?$AA@ 101280f8     sfc_debugmsvc80:sfdb_handle_management.obj
 0002:00004100       ??_C@_0BJ@IEEBKHME@sfdb_handle_management?4c?$AA@ 10128100     sfc_debugmsvc80:sfdb_handle_management.obj
 0002:0000411c       ??_C@_06NCGDPKCC@handle?$AA@ 1012811c     sfc_debugmsvc80:sfdb_handle_management.obj
 0002:00004124       ??_C@_0BP@NAIIDBEE@parentObjectType?$DN?$DNCHART_OBJECT?$AA@ 10128124     sfc_debugmsvc80:sfdb_handle_management.obj
 0002:00004144       ??_C@_0BD@JOOOIBOE@get_machine_option?$AA@ 10128144     sfc_debugmsvc80:sfdb_handle_management.obj
 0002:00004158       ??_C@_0P@KGLBOIAN@get_machine_id?$AA@ 10128158     sfc_debugmsvc80:sfdb_handle_management.obj
 0002:00004168       ??_C@_0N@OBHOGINE@get_chart_id?$AA@ 10128168     sfc_debugmsvc80:sfdb_handle_management.obj
 0002:00004178       ??_C@_0BD@DICPGEAM@register_sfunction?$AA@ 10128178     sfc_debugmsvc80:sfdb_handle_management.obj
 0002:0000418c       ??_C@_0BF@FENDCECP@get_chart_visibility?$AA@ 1012818c     sfc_debugmsvc80:sfdb_handle_management.obj
 0002:000041a4       ??_C@_0BM@FDGIEMLG@objectProperties?9?$DOlength?$DN?$DN0?$AA@ 101281a4     sfc_debugmsvc80:sfdb_handle_management.obj
 0002:000041c0       ??_C@_0CE@KBPIEDGG@?$CI?$CI?$CKobjectProperties?$CJ?$CJ?4length?$DOnum@ 101281c0     sfc_debugmsvc80:sfdb_handle_management.obj
 0002:000041e4       ??_C@_0CA@HFGDFECP@len?5?$DN?$DN?5objectProperties?9?$DOlength?$AA@ 101281e4     sfc_debugmsvc80:sfdb_handle_management.obj
 0002:00004204       ??_C@_0P@BHPLCHGJ@get_object_ids?$AA@ 10128204     sfc_debugmsvc80:sfdb_handle_management.obj
 0002:00004214       ??_C@_0BK@IFFOLHLE@objectProperties?9?$DOsize?$DN?$DN0?$AA@ 10128214     sfc_debugmsvc80:sfdb_handle_management.obj
 0002:00004230       ??_C@_0BO@GFLPGHHM@len?5?$DO?$DN?5objectProperties?9?$DOsize?$AA@ 10128230     sfc_debugmsvc80:sfdb_handle_management.obj
 0002:00004250       ??_C@_05GFHEIIDD@event?$AA@ 10128250     sfc_debugmsvc80:sfdb_handle_management.obj
 0002:00004258       ??_C@_0M@BFOKCNLA@debug?4watch?$AA@ 10128258     sfc_debugmsvc80:sfdb_handle_management.obj
 0002:00004264       ??_C@_0CE@OILCPIFA@machine?4debug?4disableAllBreakpoi@ 10128264     sfc_debugmsvc80:sfdb_handle_management.obj
 0002:00004288       ??_C@_0DA@JMDEGBBH@machine?4debug?4runTimeCheck?4state@ 10128288     sfc_debugmsvc80:sfdb_handle_management.obj
 0002:000042b8       ??_C@_0CP@IPHIMGFA@machine?4debug?4runTimeCheck?4trans@ 101282b8     sfc_debugmsvc80:sfdb_handle_management.obj
 0002:000042e8       ??_C@_0CL@LENOAAKD@machine?4debug?4runTimeCheck?4dataR@ 101282e8     sfc_debugmsvc80:sfdb_handle_management.obj
 0002:00004314       ??_C@_0CK@MBMAMLGE@machine?4debug?4runTimeCheck?4cycle@ 10128314     sfc_debugmsvc80:sfdb_handle_management.obj
 0002:00004340       ??_C@_0CA@EGLALCO@machine?4debug?4animation?4enabled?$AA@ 10128340     sfc_debugmsvc80:sfdb_handle_management.obj
 0002:00004360       ??_C@_0L@KGLELNDP@transition?$AA@ 10128360     sfc_debugmsvc80:sfdb_handle_management.obj
 0002:0000436c       ??_C@_06JKPEPHBG@dst?4id?$AA@ 1012836c     sfc_debugmsvc80:sfdb_handle_management.obj
 0002:00004374       ??_C@_05HDBKIDE@state?$AA@ 10128374     sfc_debugmsvc80:sfdb_handle_management.obj
 0002:00004380       ??_C@_0EG@MFIKDIJB@strlen?$CImachineName?$CJ?5?$DM?5sizeof?$CIdeb@ 10128380     sfc_debugmsvc80:sfdb_handle_management.obj
 0002:000043c8       ??_C@_0BM@DEONCIBN@stackPtr?5?$DN?$DN?5symScope?9?$DOstack?$AA@ 101283c8     sfc_debugmsvc80:sfdb_symbol_scope.obj
 0002:000043e4       ??_C@_0BE@PIKAOBFK@sfdb_symbol_scope?4c?$AA@ 101283e4     sfc_debugmsvc80:sfdb_symbol_scope.obj
 0002:000043f8       ??_C@_0BP@MJGDIBPE@symScope?9?$DOcurrentScope?5?$CB?$DN?5NULL?$AA@ 101283f8     sfc_debugmsvc80:sfdb_symbol_scope.obj
 0002:00004418       ??_C@_0BP@OCHHKFJA@symScope?9?$DOcurrentScope?5?$DN?$DN?5NULL?$AA@ 10128418     sfc_debugmsvc80:sfdb_symbol_scope.obj
 0002:00004438       ??_C@_0BM@KCIKANPA@symScope?9?$DOstack?5?$DN?$DN?5stackPtr?$AA@ 10128438     sfc_debugmsvc80:sfdb_symbol_scope.obj
 0002:00004454       ??_C@_0DK@NCABFGD@symScope?9?$DOcurrentScope?5?$CB?$DN?5NULL?5?$CG@ 10128454     sfc_debugmsvc80:sfdb_symbol_scope.obj
 0002:00004490       ??_C@_0DL@LDAGNOEE@currScope?9?$DOsymbolTable?4count?5?$DM?5c@ 10128490     sfc_debugmsvc80:sfdb_symbol_scope.obj
 0002:000044cc       ??_C@_0BK@PHCKFGOO@numDims?5?$DM?$DN?5MAX_DIMENSIONS?$AA@ 101284cc     sfc_debugmsvc80:sfdb_symbol_scope.obj
 0002:000044e8       ??_C@_0EE@CLCFNFKP@Warning?3?5Can?8t?5display?5value?4?5Nu@ 101284e8     sfc_debugmsvc80:sfdb_symbol_scope.obj
 0002:0000452c       ??_C@_0BB@NPDHFBEP@valuePtr?5?$CB?$DN?5NULL?$AA@ 1012852c     sfc_debugmsvc80:sfdb_symbol_scope.obj
 0002:00004540       ??_C@_0O@CHHKIHJE@chart?5?$CB?$DN?5NULL?$AA@ 10128540     sfc_debugmsvc80:sfdb_symbol_scope.obj
 0002:00004550       ??_C@_0BH@JFKFJEAI@dataInfo?5?$CG?$CG?5data?5?$CG?$CG?5st?$AA@ 10128550     sfc_debugmsvc80:sfdb_symbol_scope.obj
 0002:00004568       ??_C@_0PC@ENOLANEC@Cannot?5change?5value?5of?5?8?$CFs?8?5at?5d@ 10128568     sfc_debugmsvc80:sfdb_symbol_scope.obj
 0002:0000465c       ??_C@_02PINLEBJB@fi?$AA@   1012865c     sfc_debugmsvc80:sfdb_symbol_scope.obj
 0002:00004660       ??_C@_06FDANFAAP@sim2fi?$AA@ 10128660     sfc_debugmsvc80:sfdb_symbol_scope.obj
 0002:00004668       ??_C@_0N@PGGMJAFA@Out?5of?5Scope?$AA@ 10128668     sfc_debugmsvc80:sfdb_symbol_scope.obj
 0002:00004678       ??_C@_0BF@KFJKGDMO@Unrecognized?5symbol?4?$AA@ 10128678     sfc_debugmsvc80:sfdb_symbol_scope.obj
 0002:00004690       ??_C@_0L@INJGJGAM@?5?$CIcomplex?$CJ?$AA@ 10128690     sfc_debugmsvc80:sfdb_symbol_scope.obj
 0002:0000469c       ??_C@_0O@MHGLJPE@fixpt?5?$CI?$CFs?5?$CFs?$CJ?$AA@ 1012869c     sfc_debugmsvc80:sfdb_symbol_scope.obj
 0002:000046ac       ??_C@_08FFKICJMO@?$CFs?$CL?$CF?416g?$AA@ 101286ac     sfc_debugmsvc80:sfdb_symbol_scope.obj
 0002:000046b8       ??_C@_02EPPPECEI@SI?$AA@   101286b8     sfc_debugmsvc80:sfdb_symbol_scope.obj
 0002:000046bc       ??_C@_09LKFGHFHF@?$CFs?$CI2?$FO?$CFd?$CJ?$CK?$AA@ 101286bc     sfc_debugmsvc80:sfdb_symbol_scope.obj
 0002:000046c8       ??_C@_06KJECHFDK@?$CF?416g?$CK?$AA@ 101286c8     sfc_debugmsvc80:sfdb_symbol_scope.obj
 0002:000046d0       ??_C@_02IJPJFKDF@ml?$AA@   101286d0     sfc_debugmsvc80:sfdb_symbol_scope.obj
 0002:000046d4       ??_C@_0O@NJOJHIHO@logical?5array?$AA@ 101286d4     sfc_debugmsvc80:sfdb_symbol_scope.obj
 0002:000046e4       ??_C@_0L@MDMKKENH@char?5array?$AA@ 101286e4     sfc_debugmsvc80:sfdb_symbol_scope.obj
 0002:000046f0       ??_C@_0N@DGCGENML@uint32?5array?$AA@ 101286f0     sfc_debugmsvc80:sfdb_symbol_scope.obj
 0002:00004700       ??_C@_0M@OFFMACLB@int32?5array?$AA@ 10128700     sfc_debugmsvc80:sfdb_symbol_scope.obj
 0002:0000470c       ??_C@_0N@JMJKGLLH@uint16?5array?$AA@ 1012870c     sfc_debugmsvc80:sfdb_symbol_scope.obj
 0002:0000471c       ??_C@_0M@EPOACEMN@int16?5array?$AA@ 1012871c     sfc_debugmsvc80:sfdb_symbol_scope.obj
 0002:00004728       ??_C@_0M@NOMKNEGI@uint8?5array?$AA@ 10128728     sfc_debugmsvc80:sfdb_symbol_scope.obj
 0002:00004734       ??_C@_0L@HCHBFFAP@int8?5array?$AA@ 10128734     sfc_debugmsvc80:sfdb_symbol_scope.obj
 0002:00004740       ??_C@_0N@KIFCNMIF@single?5array?$AA@ 10128740     sfc_debugmsvc80:sfdb_symbol_scope.obj
 0002:00004750       ??_C@_0N@OFOFFBCM@double?5array?$AA@ 10128750     sfc_debugmsvc80:sfdb_symbol_scope.obj
 0002:00004760       ??_C@_04CADIJHHA@?$CFd?9D?$AA@ 10128760     sfc_debugmsvc80:sfdb_symbol_scope.obj
 0002:00004768       ??_C@_05JIPKJPMI@?$CFs?$CFdx?$AA@ 10128768     sfc_debugmsvc80:sfdb_symbol_scope.obj
 0002:00004770       ??_C@_04BIAHPGJI@?$CFdx1?$AA@ 10128770     sfc_debugmsvc80:sfdb_symbol_scope.obj
 0002:00004778       ??_C@_0BH@GLACFBLP@?5?$CIvariable?5sized?3?5MAX?5?$AA@ 10128778     sfc_debugmsvc80:sfdb_symbol_scope.obj
 0002:00004790       ??_C@_07CIFAGBMG@unknown?$AA@ 10128790     sfc_debugmsvc80:sfdb_symbol_scope.obj
 0002:00004798       ??_C@_05ENKANFLO@class?$AA@ 10128798     sfc_debugmsvc80:sfdb_symbol_scope.obj
 0002:000047a0       ??_C@_05FBJAGGIG@bytes?$AA@ 101287a0     sfc_debugmsvc80:sfdb_symbol_scope.obj
 0002:000047a8       ??_C@_04MEMAJGDJ@name?$AA@ 101287a8     sfc_debugmsvc80:sfdb_symbol_scope.obj
 0002:000047b0       ??_C@_0CF@NELOECCL@coverageVector?9?$DOlength?$DOcoverageI@ 101287b0     sfc_debugmsvc80:sfdb_coverage.obj
 0002:000047d8       ??_C@_0BA@CBMBNBFB@sfdb_coverage?4c?$AA@ 101287d8     sfc_debugmsvc80:sfdb_coverage.obj
 0002:000047e8       ??_C@_0DN@FAEHHEAM@?$CIscript?9?$DObm?4breakpoints?$CJ?4length?$DO@ 101287e8     sfc_debugmsvc80:sfdb_breakpoints.obj
 0002:00004828       ??_C@_0BD@BABBLJFB@sfdb_breakpoints?4c?$AA@ 10128828     sfc_debugmsvc80:sfdb_breakpoints.obj
 0002:0000483c       ??_C@_0P@IGHKOFID@get_script_bps?$AA@ 1012883c     sfc_debugmsvc80:sfdb_breakpoints.obj
 0002:0000484c       ??_C@_0BA@ICOJJJDD@get_all_scripts?$AA@ 1012884c     sfc_debugmsvc80:sfdb_breakpoints.obj
 0002:00004860       ??_C@_0EI@EDDFBGGP@?$CIunsigned?5int?$CJ?$CImxGetM?$CIplhs?$FL0?$FN?$CJ?5?$CK@ 10128860     sfc_debugmsvc80:sfdb_breakpoints.obj
 0002:000048a8       ??_C@_0BE@PNADEEOB@get_eml_line_counts?$AA@ 101288a8     sfc_debugmsvc80:sfdb_breakpoints.obj
 0002:000048bc       ??_C@_0CC@JPCLBDPC@mxGetNumberOfElements?$CIplhs?$FL0?$FN?$CJ?$DN?$DN@ 101288bc     sfc_debugmsvc80:sfdb_breakpoints.obj
 0002:000048e0       ??_C@_0P@EHJHKHLL@get_global_bps?$AA@ 101288e0     sfc_debugmsvc80:sfdb_breakpoints.obj
 0002:000048f0       ??_C@_0CE@NADCJCF@?$CIchart?9?$DObm?4chart?$FLtagType?$FN?$CJ?4lengt@ 101288f0     sfc_debugmsvc80:sfdb_breakpoints.obj
 0002:00004914       ??_C@_0DB@PCFIPMMH@?$CImachine?9?$DObm?4event?$FLtagType?$FN?$CJ?4len@ 10128914     sfc_debugmsvc80:sfdb_breakpoints.obj
 0002:00004948       ??_C@_0CP@FENPPAOI@?$CIchart?9?$DObm?4event?$FLtagType?$FN?$CJ?4lengt@ 10128948     sfc_debugmsvc80:sfdb_breakpoints.obj
 0002:00004978       ??_C@_0DE@GNPGALGC@?$CIchart?9?$DObm?4transition?$FLtagType?$FN?$CJ?4@ 10128978     sfc_debugmsvc80:sfdb_breakpoints.obj
 0002:000049ac       ??_C@_0CP@JOFCMAIP@?$CIchart?9?$DObm?4state?$FLtagType?$FN?$CJ?4lengt@ 101289ac     sfc_debugmsvc80:sfdb_breakpoints.obj
 0002:000049dc       ??_C@_0CH@EKAIFOIL@numCols?5?$DN?$DN?5TOTAL_EVENT_BREAKPOIN@ 101289dc     sfc_debugmsvc80:sfdb_breakpoints.obj
 0002:00004a04       ??_C@_0CA@BECONEOF@numRows?5?$DN?$DN?5machine?9?$DOevent?4count?$AA@ 10128a04     sfc_debugmsvc80:sfdb_breakpoints.obj
 0002:00004a24       ??_C@_07HCEBIAFG@get_bps?$AA@ 10128a24     sfc_debugmsvc80:sfdb_breakpoints.obj
 0002:00004a2c       ??_C@_0N@CNOINHPD@numCols?5?$DN?$DN?51?$AA@ 10128a2c     sfc_debugmsvc80:sfdb_breakpoints.obj
 0002:00004a3c       ??_C@_0M@NNPJEEAE@get_eml_bps?$AA@ 10128a3c     sfc_debugmsvc80:sfdb_breakpoints.obj
 0002:00004a48       ??_C@_0BO@CDPAPHEM@numRows?5?$DN?$DN?5chart?9?$DOevent?4count?$AA@ 10128a48     sfc_debugmsvc80:sfdb_breakpoints.obj
 0002:00004a68       ??_C@_0CM@FFJFHNEO@numCols?5?$DN?$DN?5TOTAL_TRANSITION_BREA@ 10128a68     sfc_debugmsvc80:sfdb_breakpoints.obj
 0002:00004a94       ??_C@_0CD@IOIMPEBN@numRows?5?$DN?$DN?5chart?9?$DOtransition?4cou@ 10128a94     sfc_debugmsvc80:sfdb_breakpoints.obj
 0002:00004ab8       ??_C@_0CH@JEIBGOOJ@numCols?5?$DN?$DN?5TOTAL_STATE_BREAKPOIN@ 10128ab8     sfc_debugmsvc80:sfdb_breakpoints.obj
 0002:00004ae0       ??_C@_0BO@BIKNFPLB@numRows?5?$DN?$DN?5chart?9?$DOstate?4count?$AA@ 10128ae0     sfc_debugmsvc80:sfdb_breakpoints.obj
 0002:00004b00       ??_C@_0CH@BNLENKGD@numCols?5?$DN?$DN?5TOTAL_CHART_BREAKPOIN@ 10128b00     sfc_debugmsvc80:sfdb_breakpoints.obj
 0002:00004b28       ??_C@_0N@MEFFBAFI@numRows?5?$DN?$DN?51?$AA@ 10128b28     sfc_debugmsvc80:sfdb_breakpoints.obj
 0002:00004b38       ??_C@_0BJ@BLHBHILO@sfdb_state_consistency?4c?$AA@ 10128b38     sfc_debugmsvc80:sfdb_state_consistency.obj
 0002:00004b54       ??_C@_09LHFAMEGK@errorType?$AA@ 10128b54     sfc_debugmsvc80:sfdb_state_consistency.obj
 0002:00004b60       ??_C@_08DLAIKNBK@objectId?$AA@ 10128b60     sfc_debugmsvc80:sfdb_state_consistency.obj
 0002:00004b6c       ??_C@_0L@GODCDFEF@objectType?$AA@ 10128b6c     sfc_debugmsvc80:sfdb_state_consistency.obj
 0002:00004b78       ??_C@_0L@CCGENCKP@errorStack?$AA@ 10128b78     sfc_debugmsvc80:sfdb_state_consistency.obj
 0002:00004b84       ??_C@_0O@PPHMCEKO@cycleDetected?$AA@ 10128b84     sfc_debugmsvc80:sfdb_call_stack.obj
 0002:00004b94       ??_C@_0N@MGKMJLEK@cycleStarted?$AA@ 10128b94     sfc_debugmsvc80:sfdb_call_stack.obj
 0002:00004ba4       ??_C@_07BNCILGOA@tagType?$AA@ 10128ba4     sfc_debugmsvc80:sfdb_call_stack.obj
 0002:00004bac       ??_C@_0L@POKIGEMP@eventScope?$AA@ 10128bac     sfc_debugmsvc80:sfdb_call_stack.obj
 0002:00004bb8       ??_C@_0M@LKJJPLIC@traceVector?$AA@ 10128bb8     sfc_debugmsvc80:sfdb_call_stack.obj
 0002:00004bc8       ??_C@_0EC@MGCLADPL@?$CIinstance?9?$DOcycleDetection?4transi@ 10128bc8     sfc_debugmsvc80:sfdb_cycle_detection.obj
 0002:00004c0c       ??_C@_0BH@ELCAAKDD@sfdb_cycle_detection?4c?$AA@ 10128c0c     sfc_debugmsvc80:sfdb_cycle_detection.obj
 0002:00004c24       ??_C@_0O@PICIAFIK@newNode?$CB?$DNNULL?$AA@ 10128c24     sfc_debugmsvc80:sfdb_cycle_detection.obj
 0002:00004c34       __pRawDllMain              10128c34     MSVCRT:crtdll.obj
 0002:00004c34       __pDefaultRawDllMain       10128c34     MSVCRT:crtdll.obj
 0002:00004c40       ?ProcessDetach@NativeDll@<CrtImplementationDetails>@@0IB 10128c40     MSVCRT:tncleanup.obj
 0002:00004c44       ?ProcessAttach@NativeDll@<CrtImplementationDetails>@@0IB 10128c44     MSVCRT:tncleanup.obj
 0002:00004c48       ?ThreadAttach@NativeDll@<CrtImplementationDetails>@@0IB 10128c48     MSVCRT:tncleanup.obj
 0002:00004c4c       ?ThreadDetach@NativeDll@<CrtImplementationDetails>@@0IB 10128c4c     MSVCRT:tncleanup.obj
 0002:00004c50       ?ProcessVerifier@NativeDll@<CrtImplementationDetails>@@0IB 10128c50     MSVCRT:tncleanup.obj
 0002:00004c58       __load_config_used         10128c58     MSVCRT:loadcfg.obj
 0002:00004ca0       ___safe_se_handler_table   10128ca0     <linker-defined>
 0002:00004ca4       ___rtc_iaa                 10128ca4     MSVCRT:_initsect_.obj
 0002:00004ca8       ___rtc_izz                 10128ca8     MSVCRT:_initsect_.obj
 0002:00004cac       ___rtc_taa                 10128cac     MSVCRT:_initsect_.obj
 0002:00004cb0       ___rtc_tzz                 10128cb0     MSVCRT:_initsect_.obj
 0002:00004d1c       __IMPORT_DESCRIPTOR_libmx  10128d1c     libmx:libmx.dll
 0002:00004d30       __IMPORT_DESCRIPTOR_libmex 10128d30     libmex:libmex.dll
 0002:00004d44       __IMPORT_DESCRIPTOR_libfixedpoint 10128d44     libfixedpoint:libfixedpoint.dll
 0002:00004d58       __IMPORT_DESCRIPTOR_libut  10128d58     libut:libut.dll
 0002:00004d6c       __IMPORT_DESCRIPTOR_libmwmathutil 10128d6c     libmwmathutil:libmwmathutil.dll
 0002:00004d80       __IMPORT_DESCRIPTOR_libemlrt 10128d80     libemlrt:libemlrt.dll
 0002:00004d94       __IMPORT_DESCRIPTOR_libmwblas 10128d94     libmwblas:libmwblas.dll
 0002:00004da8       __IMPORT_DESCRIPTOR_MSVCR100 10128da8     MSVCRT:MSVCR100.dll
 0002:00004dbc       __IMPORT_DESCRIPTOR_KERNEL32 10128dbc     kernel32:KERNEL32.dll
 0002:00004dd0       __NULL_IMPORT_DESCRIPTOR   10128dd0     libmx:libmx.dll
 0003:000331b4       _DYNAMIC_DIMENSION         1015d1b4     CusakisME4901arcs2_sfun_registry.obj
 0003:000344b0       _emlrtContextGlobal        1015e4b0     sfc_mexmsvc80:sfc_mex.obj
 0003:00034530       ___security_cookie         1015e530     MSVCRT:gs_cookie.obj
 0003:00034534       ___security_cookie_complement 1015e534     MSVCRT:gs_cookie.obj
 0003:00034540       ___native_dllmain_reason   1015e540     MSVCRT:natstart.obj
 0003:00034544       ___native_vcclrit_reason   1015e544     MSVCRT:natstart.obj
 0003:00034f20       _sfGlobalDebugInstanceStruct 1015ef20     CusakisME4901arcs2_sfun_registry.obj
 0003:00036048       _emlrtRootTLSGlobal        10160048     sfc_mexmsvc80:sfc_mex.obj
 0003:00036e24       ?__type_info_root_node@@3U__type_info_node@@A 10160e24     MSVCRT:tncleanup.obj
 0003:00036e30       __sfTime_                  10160e30     <common>
 0003:00036e38       __CusakisME4901arcs2MachineNumber_ 10160e38     <common>
 0003:00036e40       _gSfComplexDataTypeOffsets 10160e40     <common>
 0003:00036ea0       _gSfDataTypeOffsets        10160ea0     <common>
 0003:00036ee8       _gMaskBits                 10160ee8     <common>
 0003:00036ef0       ___native_startup_state    10160ef0     <common>
 0003:00036ef4       ___native_startup_lock     10160ef4     <common>
 0003:00036ef8       ___onexitend               10160ef8     <common>
 0003:00036efc       ___onexitbegin             10160efc     <common>
 0003:00036f00       ___sse2_available          10160f00     <common>
 0003:00036f04       ___dyn_tls_init_callback   10160f04     <common>

 entry point at        0001:00122465

 Static symbols

 0001:000002e0       _c1_info_helper            100012e0 f   c1_CusakisME4901arcs2.obj
 0001:00001210       _get_sim_state_c1_CusakisME4901arcs2 10002210 f   c1_CusakisME4901arcs2.obj
 0001:00001420       _sf_get_sim_state_info_c1_CusakisME4901arcs2 10002420 f   c1_CusakisME4901arcs2.obj
 0001:000015c0       _set_sim_state_c1_CusakisME4901arcs2 100025c0 f   c1_CusakisME4901arcs2.obj
 0001:00001720       _c1_update_debugger_state_c1_CusakisME4901arcs2 10002720 f   c1_CusakisME4901arcs2.obj
 0001:00001730       _c1_emlrt_marshallIn       10002730 f   c1_CusakisME4901arcs2.obj
 0001:00001780       _c1_b_emlrt_marshallIn     10002780 f   c1_CusakisME4901arcs2.obj
 0001:00001800       _c1_c_emlrt_marshallIn     10002800 f   c1_CusakisME4901arcs2.obj
 0001:00001850       _c1_d_emlrt_marshallIn     10002850 f   c1_CusakisME4901arcs2.obj
 0001:000018e0       _c1_g_emlrt_marshallIn     100028e0 f   c1_CusakisME4901arcs2.obj
 0001:00001930       _c1_h_emlrt_marshallIn     10002930 f   c1_CusakisME4901arcs2.obj
 0001:000019e0       _mdlProcessParameters_c1_CusakisME4901arcs2 100029e0 f   c1_CusakisME4901arcs2.obj
 0001:00001a80       _initialize_params_c1_CusakisME4901arcs2 10002a80 f   c1_CusakisME4901arcs2.obj
 0001:00001b40       _mdlSetWorkWidths_c1_CusakisME4901arcs2 10002b40 f   c1_CusakisME4901arcs2.obj
 0001:00001fd0       _sf_get_instance_specialization 10002fd0 f   c1_CusakisME4901arcs2.obj
 0001:00001fe0       _mdlStart_c1_CusakisME4901arcs2 10002fe0 f   c1_CusakisME4901arcs2.obj
 0001:00002150       _init_dsm_address_info     10003150 f   c1_CusakisME4901arcs2.obj
 0001:00002160       _chart_debug_initialization 10003160 f   c1_CusakisME4901arcs2.obj
 0001:00002860       _init_script_number_translation 10003860 f   c1_CusakisME4901arcs2.obj
 0001:00002870       _c1_sf_marshallOut         10003870 f   c1_CusakisME4901arcs2.obj
 0001:00002950       _c1_sf_marshallIn          10003950 f   c1_CusakisME4901arcs2.obj
 0001:00002a00       _c1_b_sf_marshallOut       10003a00 f   c1_CusakisME4901arcs2.obj
 0001:00002b60       _c1_b_sf_marshallIn        10003b60 f   c1_CusakisME4901arcs2.obj
 0001:00002c40       _c1_c_sf_marshallOut       10003c40 f   c1_CusakisME4901arcs2.obj
 0001:00002cc0       _c1_c_sf_marshallIn        10003cc0 f   c1_CusakisME4901arcs2.obj
 0001:00002d40       _c1_e_emlrt_marshallIn     10003d40 f   c1_CusakisME4901arcs2.obj
 0001:00002d90       _c1_d_sf_marshallOut       10003d90 f   c1_CusakisME4901arcs2.obj
 0001:00002e70       _sf_opaque_initialize_c1_CusakisME4901arcs2 10003e70 f   c1_CusakisME4901arcs2.obj
 0001:00002ea0       _initialize_c1_CusakisME4901arcs2 10003ea0 f   c1_CusakisME4901arcs2.obj
 0001:00002ee0       _sf_opaque_enable_c1_CusakisME4901arcs2 10003ee0 f   c1_CusakisME4901arcs2.obj
 0001:00002f00       _enable_c1_CusakisME4901arcs2 10003f00 f   c1_CusakisME4901arcs2.obj
 0001:00002f20       _sf_opaque_disable_c1_CusakisME4901arcs2 10003f20 f   c1_CusakisME4901arcs2.obj
 0001:00002f40       _disable_c1_CusakisME4901arcs2 10003f40 f   c1_CusakisME4901arcs2.obj
 0001:00002f60       _sf_opaque_gateway_c1_CusakisME4901arcs2 10003f60 f   c1_CusakisME4901arcs2.obj
 0001:00002f80       _sf_c1_CusakisME4901arcs2  10003f80 f   c1_CusakisME4901arcs2.obj
 0001:000031e0       _c1_chartstep_c1_CusakisME4901arcs2 100041e0 f   c1_CusakisME4901arcs2.obj
 0001:0000fd10       _c1_abs                    10010d10 f   c1_CusakisME4901arcs2.obj
 0001:0000fd40       _c1_mpower                 10010d40 f   c1_CusakisME4901arcs2.obj
 0001:0000fd90       _c1_eml_scalar_eg          10010d90 f   c1_CusakisME4901arcs2.obj
 0001:0000fda0       _sf_opaque_get_sim_state_c1_CusakisME4901arcs2 10010da0 f   c1_CusakisME4901arcs2.obj
 0001:0000fdc0       _sf_opaque_set_sim_state_c1_CusakisME4901arcs2 10010dc0 f   c1_CusakisME4901arcs2.obj
 0001:0000fde0       _sf_opaque_terminate_c1_CusakisME4901arcs2 10010de0 f   c1_CusakisME4901arcs2.obj
 0001:0000fe50       _finalize_c1_CusakisME4901arcs2 10010e50 f   c1_CusakisME4901arcs2.obj
 0001:0000fe60       _sf_opaque_init_subchart_simstructs 10010e60 f   c1_CusakisME4901arcs2.obj
 0001:0000fe80       _initSimStructsc1_CusakisME4901arcs2 10010e80 f   c1_CusakisME4901arcs2.obj
 0001:0000fe90       _mdlRTW_c1_CusakisME4901arcs2 10010e90 f   c1_CusakisME4901arcs2.obj
 0001:00010210       _c2_info_helper            10011210 f   c2_CusakisME4901arcs2.obj
 0001:00010f40       _get_sim_state_c2_CusakisME4901arcs2 10011f40 f   c2_CusakisME4901arcs2.obj
 0001:00011090       _sf_get_sim_state_info_c2_CusakisME4901arcs2 10012090 f   c2_CusakisME4901arcs2.obj
 0001:00011230       _set_sim_state_c2_CusakisME4901arcs2 10012230 f   c2_CusakisME4901arcs2.obj
 0001:00011330       _c2_update_debugger_state_c2_CusakisME4901arcs2 10012330 f   c2_CusakisME4901arcs2.obj
 0001:00011340       _c2_emlrt_marshallIn       10012340 f   c2_CusakisME4901arcs2.obj
 0001:00011390       _c2_b_emlrt_marshallIn     10012390 f   c2_CusakisME4901arcs2.obj
 0001:00011410       _c2_g_emlrt_marshallIn     10012410 f   c2_CusakisME4901arcs2.obj
 0001:00011460       _c2_h_emlrt_marshallIn     10012460 f   c2_CusakisME4901arcs2.obj
 0001:00011510       _mdlProcessParameters_c2_CusakisME4901arcs2 10012510 f   c2_CusakisME4901arcs2.obj
 0001:000115b0       _initialize_params_c2_CusakisME4901arcs2 100125b0 f   c2_CusakisME4901arcs2.obj
 0001:00011670       _mdlSetWorkWidths_c2_CusakisME4901arcs2 10012670 f   c2_CusakisME4901arcs2.obj
 0001:00011b00       _sf_get_instance_specialization 10012b00 f   c2_CusakisME4901arcs2.obj
 0001:00011b10       _mdlStart_c2_CusakisME4901arcs2 10012b10 f   c2_CusakisME4901arcs2.obj
 0001:00011c80       _init_dsm_address_info     10012c80 f   c2_CusakisME4901arcs2.obj
 0001:00011c90       _chart_debug_initialization 10012c90 f   c2_CusakisME4901arcs2.obj
 0001:000122d0       _init_script_number_translation 100132d0 f   c2_CusakisME4901arcs2.obj
 0001:000122e0       _c2_sf_marshallOut         100132e0 f   c2_CusakisME4901arcs2.obj
 0001:000123c0       _c2_sf_marshallIn          100133c0 f   c2_CusakisME4901arcs2.obj
 0001:00012470       _c2_b_sf_marshallOut       10013470 f   c2_CusakisME4901arcs2.obj
 0001:000124f0       _c2_b_sf_marshallIn        100134f0 f   c2_CusakisME4901arcs2.obj
 0001:00012570       _c2_c_emlrt_marshallIn     10013570 f   c2_CusakisME4901arcs2.obj
 0001:000125c0       _c2_c_sf_marshallOut       100135c0 f   c2_CusakisME4901arcs2.obj
 0001:000126a0       _sf_opaque_initialize_c2_CusakisME4901arcs2 100136a0 f   c2_CusakisME4901arcs2.obj
 0001:000126d0       _initialize_c2_CusakisME4901arcs2 100136d0 f   c2_CusakisME4901arcs2.obj
 0001:00012710       _sf_opaque_enable_c2_CusakisME4901arcs2 10013710 f   c2_CusakisME4901arcs2.obj
 0001:00012730       _enable_c2_CusakisME4901arcs2 10013730 f   c2_CusakisME4901arcs2.obj
 0001:00012750       _sf_opaque_disable_c2_CusakisME4901arcs2 10013750 f   c2_CusakisME4901arcs2.obj
 0001:00012770       _disable_c2_CusakisME4901arcs2 10013770 f   c2_CusakisME4901arcs2.obj
 0001:00012790       _sf_opaque_gateway_c2_CusakisME4901arcs2 10013790 f   c2_CusakisME4901arcs2.obj
 0001:000127b0       _sf_c2_CusakisME4901arcs2  100137b0 f   c2_CusakisME4901arcs2.obj
 0001:000129b0       _c2_chartstep_c2_CusakisME4901arcs2 100139b0 f   c2_CusakisME4901arcs2.obj
 0001:00014230       _c2_d_sf_marshallOut       10015230 f   c2_CusakisME4901arcs2.obj
 0001:00014310       _c2_c_sf_marshallIn        10015310 f   c2_CusakisME4901arcs2.obj
 0001:000143c0       _c2_d_emlrt_marshallIn     100153c0 f   c2_CusakisME4901arcs2.obj
 0001:00014450       _c2_e_sf_marshallOut       10015450 f   c2_CusakisME4901arcs2.obj
 0001:000145c0       _c2_d_sf_marshallIn        100155c0 f   c2_CusakisME4901arcs2.obj
 0001:000146a0       _c2_e_emlrt_marshallIn     100156a0 f   c2_CusakisME4901arcs2.obj
 0001:00014730       _c2_eml_scalar_eg          10015730 f   c2_CusakisME4901arcs2.obj
 0001:00014740       _sf_opaque_get_sim_state_c2_CusakisME4901arcs2 10015740 f   c2_CusakisME4901arcs2.obj
 0001:00014760       _sf_opaque_set_sim_state_c2_CusakisME4901arcs2 10015760 f   c2_CusakisME4901arcs2.obj
 0001:00014780       _sf_opaque_terminate_c2_CusakisME4901arcs2 10015780 f   c2_CusakisME4901arcs2.obj
 0001:000147f0       _finalize_c2_CusakisME4901arcs2 100157f0 f   c2_CusakisME4901arcs2.obj
 0001:00014800       _sf_opaque_init_subchart_simstructs 10015800 f   c2_CusakisME4901arcs2.obj
 0001:00014820       _initSimStructsc2_CusakisME4901arcs2 10015820 f   c2_CusakisME4901arcs2.obj
 0001:00014830       _mdlRTW_c2_CusakisME4901arcs2 10015830 f   c2_CusakisME4901arcs2.obj
 0001:00014ba0       _c3_info_helper            10015ba0 f   c3_CusakisME4901arcs2.obj
 0001:00015ad0       _get_sim_state_c3_CusakisME4901arcs2 10016ad0 f   c3_CusakisME4901arcs2.obj
 0001:00015ce0       _sf_get_sim_state_info_c3_CusakisME4901arcs2 10016ce0 f   c3_CusakisME4901arcs2.obj
 0001:00015e80       _set_sim_state_c3_CusakisME4901arcs2 10016e80 f   c3_CusakisME4901arcs2.obj
 0001:00015fe0       _c3_update_debugger_state_c3_CusakisME4901arcs2 10016fe0 f   c3_CusakisME4901arcs2.obj
 0001:00015ff0       _c3_emlrt_marshallIn       10016ff0 f   c3_CusakisME4901arcs2.obj
 0001:00016040       _c3_b_emlrt_marshallIn     10017040 f   c3_CusakisME4901arcs2.obj
 0001:000160c0       _c3_c_emlrt_marshallIn     100170c0 f   c3_CusakisME4901arcs2.obj
 0001:00016110       _c3_d_emlrt_marshallIn     10017110 f   c3_CusakisME4901arcs2.obj
 0001:000161a0       _c3_g_emlrt_marshallIn     100171a0 f   c3_CusakisME4901arcs2.obj
 0001:000161f0       _c3_h_emlrt_marshallIn     100171f0 f   c3_CusakisME4901arcs2.obj
 0001:000162a0       _mdlProcessParameters_c3_CusakisME4901arcs2 100172a0 f   c3_CusakisME4901arcs2.obj
 0001:00016340       _initialize_params_c3_CusakisME4901arcs2 10017340 f   c3_CusakisME4901arcs2.obj
 0001:00016400       _mdlSetWorkWidths_c3_CusakisME4901arcs2 10017400 f   c3_CusakisME4901arcs2.obj
 0001:00016890       _sf_get_instance_specialization 10017890 f   c3_CusakisME4901arcs2.obj
 0001:000168a0       _mdlStart_c3_CusakisME4901arcs2 100178a0 f   c3_CusakisME4901arcs2.obj
 0001:00016a10       _init_dsm_address_info     10017a10 f   c3_CusakisME4901arcs2.obj
 0001:00016a20       _chart_debug_initialization 10017a20 f   c3_CusakisME4901arcs2.obj
 0001:00017120       _init_script_number_translation 10018120 f   c3_CusakisME4901arcs2.obj
 0001:00017130       _c3_sf_marshallOut         10018130 f   c3_CusakisME4901arcs2.obj
 0001:00017210       _c3_sf_marshallIn          10018210 f   c3_CusakisME4901arcs2.obj
 0001:000172c0       _c3_b_sf_marshallOut       100182c0 f   c3_CusakisME4901arcs2.obj
 0001:00017430       _c3_b_sf_marshallIn        10018430 f   c3_CusakisME4901arcs2.obj
 0001:00017510       _c3_c_sf_marshallOut       10018510 f   c3_CusakisME4901arcs2.obj
 0001:00017590       _c3_c_sf_marshallIn        10018590 f   c3_CusakisME4901arcs2.obj
 0001:00017610       _c3_e_emlrt_marshallIn     10018610 f   c3_CusakisME4901arcs2.obj
 0001:00017660       _c3_d_sf_marshallOut       10018660 f   c3_CusakisME4901arcs2.obj
 0001:00017740       _sf_opaque_initialize_c3_CusakisME4901arcs2 10018740 f   c3_CusakisME4901arcs2.obj
 0001:00017770       _initialize_c3_CusakisME4901arcs2 10018770 f   c3_CusakisME4901arcs2.obj
 0001:000177b0       _sf_opaque_enable_c3_CusakisME4901arcs2 100187b0 f   c3_CusakisME4901arcs2.obj
 0001:000177d0       _enable_c3_CusakisME4901arcs2 100187d0 f   c3_CusakisME4901arcs2.obj
 0001:000177f0       _sf_opaque_disable_c3_CusakisME4901arcs2 100187f0 f   c3_CusakisME4901arcs2.obj
 0001:00017810       _disable_c3_CusakisME4901arcs2 10018810 f   c3_CusakisME4901arcs2.obj
 0001:00017830       _sf_opaque_gateway_c3_CusakisME4901arcs2 10018830 f   c3_CusakisME4901arcs2.obj
 0001:00017850       _sf_c3_CusakisME4901arcs2  10018850 f   c3_CusakisME4901arcs2.obj
 0001:00017ab0       _c3_chartstep_c3_CusakisME4901arcs2 10018ab0 f   c3_CusakisME4901arcs2.obj
 0001:000245f0       _c3_abs                    100255f0 f   c3_CusakisME4901arcs2.obj
 0001:00024620       _c3_mpower                 10025620 f   c3_CusakisME4901arcs2.obj
 0001:00024670       _c3_eml_scalar_eg          10025670 f   c3_CusakisME4901arcs2.obj
 0001:00024680       _sf_opaque_get_sim_state_c3_CusakisME4901arcs2 10025680 f   c3_CusakisME4901arcs2.obj
 0001:000246a0       _sf_opaque_set_sim_state_c3_CusakisME4901arcs2 100256a0 f   c3_CusakisME4901arcs2.obj
 0001:000246c0       _sf_opaque_terminate_c3_CusakisME4901arcs2 100256c0 f   c3_CusakisME4901arcs2.obj
 0001:00024730       _finalize_c3_CusakisME4901arcs2 10025730 f   c3_CusakisME4901arcs2.obj
 0001:00024740       _sf_opaque_init_subchart_simstructs 10025740 f   c3_CusakisME4901arcs2.obj
 0001:00024760       _initSimStructsc3_CusakisME4901arcs2 10025760 f   c3_CusakisME4901arcs2.obj
 0001:00024770       _mdlRTW_c3_CusakisME4901arcs2 10025770 f   c3_CusakisME4901arcs2.obj
 0001:00024a70       _c4_info_helper            10025a70 f   c4_CusakisME4901arcs2.obj
 0001:000257a0       _get_sim_state_c4_CusakisME4901arcs2 100267a0 f   c4_CusakisME4901arcs2.obj
 0001:000258f0       _sf_get_sim_state_info_c4_CusakisME4901arcs2 100268f0 f   c4_CusakisME4901arcs2.obj
 0001:00025a90       _set_sim_state_c4_CusakisME4901arcs2 10026a90 f   c4_CusakisME4901arcs2.obj
 0001:00025b90       _c4_update_debugger_state_c4_CusakisME4901arcs2 10026b90 f   c4_CusakisME4901arcs2.obj
 0001:00025ba0       _c4_emlrt_marshallIn       10026ba0 f   c4_CusakisME4901arcs2.obj
 0001:00025bf0       _c4_b_emlrt_marshallIn     10026bf0 f   c4_CusakisME4901arcs2.obj
 0001:00025c70       _c4_g_emlrt_marshallIn     10026c70 f   c4_CusakisME4901arcs2.obj
 0001:00025cc0       _c4_h_emlrt_marshallIn     10026cc0 f   c4_CusakisME4901arcs2.obj
 0001:00025d70       _mdlProcessParameters_c4_CusakisME4901arcs2 10026d70 f   c4_CusakisME4901arcs2.obj
 0001:00025e10       _initialize_params_c4_CusakisME4901arcs2 10026e10 f   c4_CusakisME4901arcs2.obj
 0001:00025ed0       _mdlSetWorkWidths_c4_CusakisME4901arcs2 10026ed0 f   c4_CusakisME4901arcs2.obj
 0001:00026360       _sf_get_instance_specialization 10027360 f   c4_CusakisME4901arcs2.obj
 0001:00026370       _mdlStart_c4_CusakisME4901arcs2 10027370 f   c4_CusakisME4901arcs2.obj
 0001:000264e0       _init_dsm_address_info     100274e0 f   c4_CusakisME4901arcs2.obj
 0001:000264f0       _chart_debug_initialization 100274f0 f   c4_CusakisME4901arcs2.obj
 0001:00026b30       _init_script_number_translation 10027b30 f   c4_CusakisME4901arcs2.obj
 0001:00026b40       _c4_sf_marshallOut         10027b40 f   c4_CusakisME4901arcs2.obj
 0001:00026c20       _c4_sf_marshallIn          10027c20 f   c4_CusakisME4901arcs2.obj
 0001:00026cd0       _c4_b_sf_marshallOut       10027cd0 f   c4_CusakisME4901arcs2.obj
 0001:00026d50       _c4_b_sf_marshallIn        10027d50 f   c4_CusakisME4901arcs2.obj
 0001:00026dd0       _c4_c_emlrt_marshallIn     10027dd0 f   c4_CusakisME4901arcs2.obj
 0001:00026e20       _c4_c_sf_marshallOut       10027e20 f   c4_CusakisME4901arcs2.obj
 0001:00026f20       _sf_opaque_initialize_c4_CusakisME4901arcs2 10027f20 f   c4_CusakisME4901arcs2.obj
 0001:00026f50       _initialize_c4_CusakisME4901arcs2 10027f50 f   c4_CusakisME4901arcs2.obj
 0001:00026f90       _sf_opaque_enable_c4_CusakisME4901arcs2 10027f90 f   c4_CusakisME4901arcs2.obj
 0001:00026fb0       _enable_c4_CusakisME4901arcs2 10027fb0 f   c4_CusakisME4901arcs2.obj
 0001:00026fd0       _sf_opaque_disable_c4_CusakisME4901arcs2 10027fd0 f   c4_CusakisME4901arcs2.obj
 0001:00026ff0       _disable_c4_CusakisME4901arcs2 10027ff0 f   c4_CusakisME4901arcs2.obj
 0001:00027010       _sf_opaque_gateway_c4_CusakisME4901arcs2 10028010 f   c4_CusakisME4901arcs2.obj
 0001:00027030       _sf_c4_CusakisME4901arcs2  10028030 f   c4_CusakisME4901arcs2.obj
 0001:00027230       _c4_chartstep_c4_CusakisME4901arcs2 10028230 f   c4_CusakisME4901arcs2.obj
 0001:00028ae0       _c4_d_sf_marshallOut       10029ae0 f   c4_CusakisME4901arcs2.obj
 0001:00028bc0       _c4_c_sf_marshallIn        10029bc0 f   c4_CusakisME4901arcs2.obj
 0001:00028c70       _c4_d_emlrt_marshallIn     10029c70 f   c4_CusakisME4901arcs2.obj
 0001:00028d00       _c4_e_sf_marshallOut       10029d00 f   c4_CusakisME4901arcs2.obj
 0001:00028ea0       _c4_d_sf_marshallIn        10029ea0 f   c4_CusakisME4901arcs2.obj
 0001:00028f80       _c4_e_emlrt_marshallIn     10029f80 f   c4_CusakisME4901arcs2.obj
 0001:00029010       _c4_eml_scalar_eg          1002a010 f   c4_CusakisME4901arcs2.obj
 0001:00029020       _sf_opaque_get_sim_state_c4_CusakisME4901arcs2 1002a020 f   c4_CusakisME4901arcs2.obj
 0001:00029040       _sf_opaque_set_sim_state_c4_CusakisME4901arcs2 1002a040 f   c4_CusakisME4901arcs2.obj
 0001:00029060       _sf_opaque_terminate_c4_CusakisME4901arcs2 1002a060 f   c4_CusakisME4901arcs2.obj
 0001:000290d0       _finalize_c4_CusakisME4901arcs2 1002a0d0 f   c4_CusakisME4901arcs2.obj
 0001:000290e0       _sf_opaque_init_subchart_simstructs 1002a0e0 f   c4_CusakisME4901arcs2.obj
 0001:00029100       _initSimStructsc4_CusakisME4901arcs2 1002a100 f   c4_CusakisME4901arcs2.obj
 0001:00029110       _mdlRTW_c4_CusakisME4901arcs2 1002a110 f   c4_CusakisME4901arcs2.obj
 0001:00029460       _c5_info_helper            1002a460 f   c5_CusakisME4901arcs2.obj
 0001:0002a4e0       _get_sim_state_c5_CusakisME4901arcs2 1002b4e0 f   c5_CusakisME4901arcs2.obj
 0001:0002a630       _sf_get_sim_state_info_c5_CusakisME4901arcs2 1002b630 f   c5_CusakisME4901arcs2.obj
 0001:0002a7d0       _set_sim_state_c5_CusakisME4901arcs2 1002b7d0 f   c5_CusakisME4901arcs2.obj
 0001:0002a8d0       _c5_update_debugger_state_c5_CusakisME4901arcs2 1002b8d0 f   c5_CusakisME4901arcs2.obj
 0001:0002a8e0       _c5_emlrt_marshallIn       1002b8e0 f   c5_CusakisME4901arcs2.obj
 0001:0002a930       _c5_b_emlrt_marshallIn     1002b930 f   c5_CusakisME4901arcs2.obj
 0001:0002a9c0       _c5_f_emlrt_marshallIn     1002b9c0 f   c5_CusakisME4901arcs2.obj
 0001:0002aa10       _c5_g_emlrt_marshallIn     1002ba10 f   c5_CusakisME4901arcs2.obj
 0001:0002aac0       _mdlProcessParameters_c5_CusakisME4901arcs2 1002bac0 f   c5_CusakisME4901arcs2.obj
 0001:0002ab60       _initialize_params_c5_CusakisME4901arcs2 1002bb60 f   c5_CusakisME4901arcs2.obj
 0001:0002ac20       _mdlSetWorkWidths_c5_CusakisME4901arcs2 1002bc20 f   c5_CusakisME4901arcs2.obj
 0001:0002b0b0       _sf_get_instance_specialization 1002c0b0 f   c5_CusakisME4901arcs2.obj
 0001:0002b0c0       _mdlStart_c5_CusakisME4901arcs2 1002c0c0 f   c5_CusakisME4901arcs2.obj
 0001:0002b230       _init_dsm_address_info     1002c230 f   c5_CusakisME4901arcs2.obj
 0001:0002b240       _chart_debug_initialization 1002c240 f   c5_CusakisME4901arcs2.obj
 0001:0002b880       _init_script_number_translation 1002c880 f   c5_CusakisME4901arcs2.obj
 0001:0002b890       _c5_sf_marshallOut         1002c890 f   c5_CusakisME4901arcs2.obj
 0001:0002b9e0       _c5_sf_marshallIn          1002c9e0 f   c5_CusakisME4901arcs2.obj
 0001:0002bac0       _c5_b_sf_marshallOut       1002cac0 f   c5_CusakisME4901arcs2.obj
 0001:0002bb40       _c5_b_sf_marshallIn        1002cb40 f   c5_CusakisME4901arcs2.obj
 0001:0002bbc0       _c5_c_emlrt_marshallIn     1002cbc0 f   c5_CusakisME4901arcs2.obj
 0001:0002bc10       _c5_c_sf_marshallOut       1002cc10 f   c5_CusakisME4901arcs2.obj
 0001:0002bcf0       _sf_opaque_initialize_c5_CusakisME4901arcs2 1002ccf0 f   c5_CusakisME4901arcs2.obj
 0001:0002bd20       _initialize_c5_CusakisME4901arcs2 1002cd20 f   c5_CusakisME4901arcs2.obj
 0001:0002bd60       _sf_opaque_enable_c5_CusakisME4901arcs2 1002cd60 f   c5_CusakisME4901arcs2.obj
 0001:0002bd80       _enable_c5_CusakisME4901arcs2 1002cd80 f   c5_CusakisME4901arcs2.obj
 0001:0002bda0       _sf_opaque_disable_c5_CusakisME4901arcs2 1002cda0 f   c5_CusakisME4901arcs2.obj
 0001:0002bdc0       _disable_c5_CusakisME4901arcs2 1002cdc0 f   c5_CusakisME4901arcs2.obj
 0001:0002bde0       _sf_opaque_gateway_c5_CusakisME4901arcs2 1002cde0 f   c5_CusakisME4901arcs2.obj
 0001:0002be00       _sf_c5_CusakisME4901arcs2  1002ce00 f   c5_CusakisME4901arcs2.obj
 0001:0002c000       _c5_chartstep_c5_CusakisME4901arcs2 1002d000 f   c5_CusakisME4901arcs2.obj
 0001:0002e150       _c5_d_sf_marshallOut       1002f150 f   c5_CusakisME4901arcs2.obj
 0001:0002e230       _c5_c_sf_marshallIn        1002f230 f   c5_CusakisME4901arcs2.obj
 0001:0002e2e0       _c5_d_emlrt_marshallIn     1002f2e0 f   c5_CusakisME4901arcs2.obj
 0001:0002e360       _c5_mpower                 1002f360 f   c5_CusakisME4901arcs2.obj
 0001:0002e3b0       _c5_eml_scalar_eg          1002f3b0 f   c5_CusakisME4901arcs2.obj
 0001:0002e3c0       _c5_b_eml_scalar_eg        1002f3c0 f   c5_CusakisME4901arcs2.obj
 0001:0002e3d0       _sf_opaque_get_sim_state_c5_CusakisME4901arcs2 1002f3d0 f   c5_CusakisME4901arcs2.obj
 0001:0002e3f0       _sf_opaque_set_sim_state_c5_CusakisME4901arcs2 1002f3f0 f   c5_CusakisME4901arcs2.obj
 0001:0002e410       _sf_opaque_terminate_c5_CusakisME4901arcs2 1002f410 f   c5_CusakisME4901arcs2.obj
 0001:0002e480       _finalize_c5_CusakisME4901arcs2 1002f480 f   c5_CusakisME4901arcs2.obj
 0001:0002e490       _sf_opaque_init_subchart_simstructs 1002f490 f   c5_CusakisME4901arcs2.obj
 0001:0002e4b0       _initSimStructsc5_CusakisME4901arcs2 1002f4b0 f   c5_CusakisME4901arcs2.obj
 0001:0002e4c0       _mdlRTW_c5_CusakisME4901arcs2 1002f4c0 f   c5_CusakisME4901arcs2.obj
 0001:0002e7c0       _c6_info_helper            1002f7c0 f   c6_CusakisME4901arcs2.obj
 0001:0002f840       _get_sim_state_c6_CusakisME4901arcs2 10030840 f   c6_CusakisME4901arcs2.obj
 0001:0002f990       _sf_get_sim_state_info_c6_CusakisME4901arcs2 10030990 f   c6_CusakisME4901arcs2.obj
 0001:0002fb30       _set_sim_state_c6_CusakisME4901arcs2 10030b30 f   c6_CusakisME4901arcs2.obj
 0001:0002fc30       _c6_update_debugger_state_c6_CusakisME4901arcs2 10030c30 f   c6_CusakisME4901arcs2.obj
 0001:0002fc40       _c6_emlrt_marshallIn       10030c40 f   c6_CusakisME4901arcs2.obj
 0001:0002fc90       _c6_b_emlrt_marshallIn     10030c90 f   c6_CusakisME4901arcs2.obj
 0001:0002fd20       _c6_f_emlrt_marshallIn     10030d20 f   c6_CusakisME4901arcs2.obj
 0001:0002fd70       _c6_g_emlrt_marshallIn     10030d70 f   c6_CusakisME4901arcs2.obj
 0001:0002fe20       _mdlProcessParameters_c6_CusakisME4901arcs2 10030e20 f   c6_CusakisME4901arcs2.obj
 0001:0002fec0       _initialize_params_c6_CusakisME4901arcs2 10030ec0 f   c6_CusakisME4901arcs2.obj
 0001:0002ff80       _mdlSetWorkWidths_c6_CusakisME4901arcs2 10030f80 f   c6_CusakisME4901arcs2.obj
 0001:00030410       _sf_get_instance_specialization 10031410 f   c6_CusakisME4901arcs2.obj
 0001:00030420       _mdlStart_c6_CusakisME4901arcs2 10031420 f   c6_CusakisME4901arcs2.obj
 0001:00030590       _init_dsm_address_info     10031590 f   c6_CusakisME4901arcs2.obj
 0001:000305a0       _chart_debug_initialization 100315a0 f   c6_CusakisME4901arcs2.obj
 0001:00030be0       _init_script_number_translation 10031be0 f   c6_CusakisME4901arcs2.obj
 0001:00030bf0       _c6_sf_marshallOut         10031bf0 f   c6_CusakisME4901arcs2.obj
 0001:00030d40       _c6_sf_marshallIn          10031d40 f   c6_CusakisME4901arcs2.obj
 0001:00030e20       _c6_b_sf_marshallOut       10031e20 f   c6_CusakisME4901arcs2.obj
 0001:00030ea0       _c6_b_sf_marshallIn        10031ea0 f   c6_CusakisME4901arcs2.obj
 0001:00030f20       _c6_c_emlrt_marshallIn     10031f20 f   c6_CusakisME4901arcs2.obj
 0001:00030f70       _c6_c_sf_marshallOut       10031f70 f   c6_CusakisME4901arcs2.obj
 0001:00031050       _sf_opaque_initialize_c6_CusakisME4901arcs2 10032050 f   c6_CusakisME4901arcs2.obj
 0001:00031080       _initialize_c6_CusakisME4901arcs2 10032080 f   c6_CusakisME4901arcs2.obj
 0001:000310c0       _sf_opaque_enable_c6_CusakisME4901arcs2 100320c0 f   c6_CusakisME4901arcs2.obj
 0001:000310e0       _enable_c6_CusakisME4901arcs2 100320e0 f   c6_CusakisME4901arcs2.obj
 0001:00031100       _sf_opaque_disable_c6_CusakisME4901arcs2 10032100 f   c6_CusakisME4901arcs2.obj
 0001:00031120       _disable_c6_CusakisME4901arcs2 10032120 f   c6_CusakisME4901arcs2.obj
 0001:00031140       _sf_opaque_gateway_c6_CusakisME4901arcs2 10032140 f   c6_CusakisME4901arcs2.obj
 0001:00031160       _sf_c6_CusakisME4901arcs2  10032160 f   c6_CusakisME4901arcs2.obj
 0001:00031360       _c6_chartstep_c6_CusakisME4901arcs2 10032360 f   c6_CusakisME4901arcs2.obj
 0001:000334a0       _c6_d_sf_marshallOut       100344a0 f   c6_CusakisME4901arcs2.obj
 0001:00033580       _c6_c_sf_marshallIn        10034580 f   c6_CusakisME4901arcs2.obj
 0001:00033630       _c6_d_emlrt_marshallIn     10034630 f   c6_CusakisME4901arcs2.obj
 0001:000336c0       _c6_mpower                 100346c0 f   c6_CusakisME4901arcs2.obj
 0001:00033710       _c6_eml_scalar_eg          10034710 f   c6_CusakisME4901arcs2.obj
 0001:00033720       _c6_b_eml_scalar_eg        10034720 f   c6_CusakisME4901arcs2.obj
 0001:00033730       _sf_opaque_get_sim_state_c6_CusakisME4901arcs2 10034730 f   c6_CusakisME4901arcs2.obj
 0001:00033750       _sf_opaque_set_sim_state_c6_CusakisME4901arcs2 10034750 f   c6_CusakisME4901arcs2.obj
 0001:00033770       _sf_opaque_terminate_c6_CusakisME4901arcs2 10034770 f   c6_CusakisME4901arcs2.obj
 0001:000337e0       _finalize_c6_CusakisME4901arcs2 100347e0 f   c6_CusakisME4901arcs2.obj
 0001:000337f0       _sf_opaque_init_subchart_simstructs 100347f0 f   c6_CusakisME4901arcs2.obj
 0001:00033810       _initSimStructsc6_CusakisME4901arcs2 10034810 f   c6_CusakisME4901arcs2.obj
 0001:00033820       _mdlRTW_c6_CusakisME4901arcs2 10034820 f   c6_CusakisME4901arcs2.obj
 0001:00033df0       _get_sim_state_c7_CusakisME4901arcs2 10034df0 f   c7_CusakisME4901arcs2.obj
 0001:00033f10       _sf_get_sim_state_info_c7_CusakisME4901arcs2 10034f10 f   c7_CusakisME4901arcs2.obj
 0001:000340b0       _set_sim_state_c7_CusakisME4901arcs2 100350b0 f   c7_CusakisME4901arcs2.obj
 0001:00034170       _c7_update_debugger_state_c7_CusakisME4901arcs2 10035170 f   c7_CusakisME4901arcs2.obj
 0001:00034180       _c7_emlrt_marshallIn       10035180 f   c7_CusakisME4901arcs2.obj
 0001:000341d0       _c7_b_emlrt_marshallIn     100351d0 f   c7_CusakisME4901arcs2.obj
 0001:00034220       _c7_d_emlrt_marshallIn     10035220 f   c7_CusakisME4901arcs2.obj
 0001:00034270       _c7_e_emlrt_marshallIn     10035270 f   c7_CusakisME4901arcs2.obj
 0001:00034320       _mdlProcessParameters_c7_CusakisME4901arcs2 10035320 f   c7_CusakisME4901arcs2.obj
 0001:000343c0       _initialize_params_c7_CusakisME4901arcs2 100353c0 f   c7_CusakisME4901arcs2.obj
 0001:000343d0       _mdlSetWorkWidths_c7_CusakisME4901arcs2 100353d0 f   c7_CusakisME4901arcs2.obj
 0001:00034780       _sf_get_instance_specialization 10035780 f   c7_CusakisME4901arcs2.obj
 0001:00034790       _mdlStart_c7_CusakisME4901arcs2 10035790 f   c7_CusakisME4901arcs2.obj
 0001:00034900       _init_dsm_address_info     10035900 f   c7_CusakisME4901arcs2.obj
 0001:00034910       _chart_debug_initialization 10035910 f   c7_CusakisME4901arcs2.obj
 0001:00034f30       _init_script_number_translation 10035f30 f   c7_CusakisME4901arcs2.obj
 0001:00034f40       _c7_sf_marshallOut         10035f40 f   c7_CusakisME4901arcs2.obj
 0001:00034fc0       _c7_sf_marshallIn          10035fc0 f   c7_CusakisME4901arcs2.obj
 0001:00035040       _c7_b_sf_marshallOut       10036040 f   c7_CusakisME4901arcs2.obj
 0001:00035120       _sf_opaque_initialize_c7_CusakisME4901arcs2 10036120 f   c7_CusakisME4901arcs2.obj
 0001:00035150       _initialize_c7_CusakisME4901arcs2 10036150 f   c7_CusakisME4901arcs2.obj
 0001:00035190       _sf_opaque_enable_c7_CusakisME4901arcs2 10036190 f   c7_CusakisME4901arcs2.obj
 0001:000351b0       _enable_c7_CusakisME4901arcs2 100361b0 f   c7_CusakisME4901arcs2.obj
 0001:000351d0       _sf_opaque_disable_c7_CusakisME4901arcs2 100361d0 f   c7_CusakisME4901arcs2.obj
 0001:000351f0       _disable_c7_CusakisME4901arcs2 100361f0 f   c7_CusakisME4901arcs2.obj
 0001:00035210       _sf_opaque_gateway_c7_CusakisME4901arcs2 10036210 f   c7_CusakisME4901arcs2.obj
 0001:00035230       _sf_c7_CusakisME4901arcs2  10036230 f   c7_CusakisME4901arcs2.obj
 0001:000359b0       _sf_opaque_get_sim_state_c7_CusakisME4901arcs2 100369b0 f   c7_CusakisME4901arcs2.obj
 0001:000359d0       _sf_opaque_set_sim_state_c7_CusakisME4901arcs2 100369d0 f   c7_CusakisME4901arcs2.obj
 0001:000359f0       _sf_opaque_terminate_c7_CusakisME4901arcs2 100369f0 f   c7_CusakisME4901arcs2.obj
 0001:00035a60       _finalize_c7_CusakisME4901arcs2 10036a60 f   c7_CusakisME4901arcs2.obj
 0001:00035a70       _sf_opaque_init_subchart_simstructs 10036a70 f   c7_CusakisME4901arcs2.obj
 0001:00035a90       _initSimStructsc7_CusakisME4901arcs2 10036a90 f   c7_CusakisME4901arcs2.obj
 0001:00035aa0       _mdlRTW_c7_CusakisME4901arcs2 10036aa0 f   c7_CusakisME4901arcs2.obj
 0001:00035e80       _c8_info_helper            10036e80 f   c8_CusakisME4901arcs2.obj
 0001:00037830       _c8_b_info_helper          10038830 f   c8_CusakisME4901arcs2.obj
 0001:00039240       _c8_c_info_helper          1003a240 f   c8_CusakisME4901arcs2.obj
 0001:0003ac50       _c8_d_info_helper          1003bc50 f   c8_CusakisME4901arcs2.obj
 0001:0003cdc0       _get_sim_state_c8_CusakisME4901arcs2 1003ddc0 f   c8_CusakisME4901arcs2.obj
 0001:0003d010       _sf_get_sim_state_info_c8_CusakisME4901arcs2 1003e010 f   c8_CusakisME4901arcs2.obj
 0001:0003d1b0       _set_sim_state_c8_CusakisME4901arcs2 1003e1b0 f   c8_CusakisME4901arcs2.obj
 0001:0003d350       _c8_update_debugger_state_c8_CusakisME4901arcs2 1003e350 f   c8_CusakisME4901arcs2.obj
 0001:0003d360       _c8_emlrt_marshallIn       1003e360 f   c8_CusakisME4901arcs2.obj
 0001:0003d3b0       _c8_b_emlrt_marshallIn     1003e3b0 f   c8_CusakisME4901arcs2.obj
 0001:0003d400       _c8_c_emlrt_marshallIn     1003e400 f   c8_CusakisME4901arcs2.obj
 0001:0003d450       _c8_d_emlrt_marshallIn     1003e450 f   c8_CusakisME4901arcs2.obj
 0001:0003d4d0       _c8_j_emlrt_marshallIn     1003e4d0 f   c8_CusakisME4901arcs2.obj
 0001:0003d520       _c8_k_emlrt_marshallIn     1003e520 f   c8_CusakisME4901arcs2.obj
 0001:0003d5d0       _mdlProcessParameters_c8_CusakisME4901arcs2 1003e5d0 f   c8_CusakisME4901arcs2.obj
 0001:0003d670       _initialize_params_c8_CusakisME4901arcs2 1003e670 f   c8_CusakisME4901arcs2.obj
 0001:0003d730       _mdlSetWorkWidths_c8_CusakisME4901arcs2 1003e730 f   c8_CusakisME4901arcs2.obj
 0001:0003dc10       _sf_get_instance_specialization 1003ec10 f   c8_CusakisME4901arcs2.obj
 0001:0003dc20       _mdlStart_c8_CusakisME4901arcs2 1003ec20 f   c8_CusakisME4901arcs2.obj
 0001:0003dd90       _init_dsm_address_info     1003ed90 f   c8_CusakisME4901arcs2.obj
 0001:0003dda0       _chart_debug_initialization 1003eda0 f   c8_CusakisME4901arcs2.obj
 0001:0003e780       _init_script_number_translation 1003f780 f   c8_CusakisME4901arcs2.obj
 0001:0003e790       _c8_sf_marshallOut         1003f790 f   c8_CusakisME4901arcs2.obj
 0001:0003e810       _c8_sf_marshallIn          1003f810 f   c8_CusakisME4901arcs2.obj
 0001:0003e890       _c8_b_sf_marshallOut       1003f890 f   c8_CusakisME4901arcs2.obj
 0001:0003e970       _c8_b_sf_marshallIn        1003f970 f   c8_CusakisME4901arcs2.obj
 0001:0003ea20       _c8_c_sf_marshallOut       1003fa20 f   c8_CusakisME4901arcs2.obj
 0001:0003eb30       _c8_d_sf_marshallOut       1003fb30 f   c8_CusakisME4901arcs2.obj
 0001:0003ebf0       _sf_opaque_initialize_c8_CusakisME4901arcs2 1003fbf0 f   c8_CusakisME4901arcs2.obj
 0001:0003ec20       _initialize_c8_CusakisME4901arcs2 1003fc20 f   c8_CusakisME4901arcs2.obj
 0001:0003ec60       _sf_opaque_enable_c8_CusakisME4901arcs2 1003fc60 f   c8_CusakisME4901arcs2.obj
 0001:0003ec80       _enable_c8_CusakisME4901arcs2 1003fc80 f   c8_CusakisME4901arcs2.obj
 0001:0003eca0       _sf_opaque_disable_c8_CusakisME4901arcs2 1003fca0 f   c8_CusakisME4901arcs2.obj
 0001:0003ecc0       _disable_c8_CusakisME4901arcs2 1003fcc0 f   c8_CusakisME4901arcs2.obj
 0001:0003ece0       _sf_opaque_gateway_c8_CusakisME4901arcs2 1003fce0 f   c8_CusakisME4901arcs2.obj
 0001:0003ed00       _sf_c8_CusakisME4901arcs2  1003fd00 f   c8_CusakisME4901arcs2.obj
 0001:0003f070       _c8_chartstep_c8_CusakisME4901arcs2 10040070 f   c8_CusakisME4901arcs2.obj
 0001:0004d330       _c8_c_sf_marshallIn        1004e330 f   c8_CusakisME4901arcs2.obj
 0001:0004d3d0       _c8_e_emlrt_marshallIn     1004e3d0 f   c8_CusakisME4901arcs2.obj
 0001:0004d440       _c8_e_sf_marshallOut       1004e440 f   c8_CusakisME4901arcs2.obj
 0001:0004d590       _c8_d_sf_marshallIn        1004e590 f   c8_CusakisME4901arcs2.obj
 0001:0004d670       _c8_f_emlrt_marshallIn     1004e670 f   c8_CusakisME4901arcs2.obj
 0001:0004d700       _c8_f_sf_marshallOut       1004e700 f   c8_CusakisME4901arcs2.obj
 0001:0004d850       _c8_e_sf_marshallIn        1004e850 f   c8_CusakisME4901arcs2.obj
 0001:0004d930       _c8_g_emlrt_marshallIn     1004e930 f   c8_CusakisME4901arcs2.obj
 0001:0004d9c0       _c8_g_sf_marshallOut       1004e9c0 f   c8_CusakisME4901arcs2.obj
 0001:0004daa0       _c8_f_sf_marshallIn        1004eaa0 f   c8_CusakisME4901arcs2.obj
 0001:0004db50       _c8_h_emlrt_marshallIn     1004eb50 f   c8_CusakisME4901arcs2.obj
 0001:0004dbe0       _c8_eml_scalar_eg          1004ebe0 f   c8_CusakisME4901arcs2.obj
 0001:0004dbf0       _c8_det                    1004ebf0 f   c8_CusakisME4901arcs2.obj
 0001:0004dc60       _c8_mpower                 1004ec60 f   c8_CusakisME4901arcs2.obj
 0001:0004dcf0       _c8_eml_error              1004ecf0 f   c8_CusakisME4901arcs2.obj
 0001:0004de10       _c8_c_eml_scalar_eg        1004ee10 f   c8_CusakisME4901arcs2.obj
 0001:0004de20       _c8_b_eml_error            1004ee20 f   c8_CusakisME4901arcs2.obj
 0001:0004ded0       _c8_pinv                   1004eed0 f   c8_CusakisME4901arcs2.obj
 0001:0004e880       _c8_eps                    1004f880 f   c8_CusakisME4901arcs2.obj
 0001:0004e890       _c8_check_forloop_overflow_error 1004f890 f   c8_CusakisME4901arcs2.obj
 0001:0004e9c0       _c8_c_eml_error            1004f9c0 f   c8_CusakisME4901arcs2.obj
 0001:0004ea70       _c8_eml_xgesvd             1004fa70 f   c8_CusakisME4901arcs2.obj
 0001:00055e90       _c8_b_eml_scalar_eg        10056e90 f   c8_CusakisME4901arcs2.obj
 0001:00055ea0       _c8_realmin                10056ea0 f   c8_CusakisME4901arcs2.obj
 0001:00055eb0       _c8_abs                    10056eb0 f   c8_CusakisME4901arcs2.obj
 0001:00055ee0       _c8_eml_div                10056ee0 f   c8_CusakisME4901arcs2.obj
 0001:00055ef0       _c8_d_eml_scalar_eg        10056ef0 f   c8_CusakisME4901arcs2.obj
 0001:00055f00       _c8_eml_xnrm2              10056f00 f   c8_CusakisME4901arcs2.obj
 0001:000561c0       _c8_eml_xdotc              100571c0 f   c8_CusakisME4901arcs2.obj
 0001:000563c0       _c8_b_eml_xnrm2            100573c0 f   c8_CusakisME4901arcs2.obj
 0001:00056680       _c8_b_eml_xdotc            10057680 f   c8_CusakisME4901arcs2.obj
 0001:00056890       _c8_e_eml_scalar_eg        10057890 f   c8_CusakisME4901arcs2.obj
 0001:000568a0       _c8_d_eml_error            100578a0 f   c8_CusakisME4901arcs2.obj
 0001:00056950       _c8_g_eml_scalar_eg        10057950 f   c8_CusakisME4901arcs2.obj
 0001:00056960       _c8_svd                    10057960 f   c8_CusakisME4901arcs2.obj
 0001:00056af0       _c8_eml_matlab_zsvdc       10057af0 f   c8_CusakisME4901arcs2.obj
 0001:0005b360       _c8_f_eml_scalar_eg        1005c360 f   c8_CusakisME4901arcs2.obj
 0001:0005b370       _c8_c_eml_xnrm2            1005c370 f   c8_CusakisME4901arcs2.obj
 0001:0005b4b0       _c8_c_eml_xdotc            1005c4b0 f   c8_CusakisME4901arcs2.obj
 0001:0005b630       _c8_d_eml_xnrm2            1005c630 f   c8_CusakisME4901arcs2.obj
 0001:0005b770       _c8_b_mpower               1005c770 f   c8_CusakisME4901arcs2.obj
 0001:0005b7c0       _c8_b_pinv                 1005c7c0 f   c8_CusakisME4901arcs2.obj
 0001:0005c030       _c8_b_eml_xgesvd           1005d030 f   c8_CusakisME4901arcs2.obj
 0001:00061660       _c8_e_eml_xnrm2            10062660 f   c8_CusakisME4901arcs2.obj
 0001:000617a0       _c8_d_eml_xdotc            100627a0 f   c8_CusakisME4901arcs2.obj
 0001:00061910       _c8_h_eml_scalar_eg        10062910 f   c8_CusakisME4901arcs2.obj
 0001:00061920       _c8_b_eml_matlab_zgetrf    10062920 f   c8_CusakisME4901arcs2.obj
 0001:00061e70       _c8_below_threshold        10062e70 f   c8_CusakisME4901arcs2.obj
 0001:00061e80       _c8_b_eml_xger             10062e80 f   c8_CusakisME4901arcs2.obj
 0001:00062070       _c8_b_sqrt                 10063070 f   c8_CusakisME4901arcs2.obj
 0001:000620b0       _c8_h_eml_xscal            100630b0 f   c8_CusakisME4901arcs2.obj
 0001:00062290       _c8_i_eml_xaxpy            10063290 f   c8_CusakisME4901arcs2.obj
 0001:00062560       _c8_i_eml_xscal            10063560 f   c8_CusakisME4901arcs2.obj
 0001:00062740       _c8_j_eml_xaxpy            10063740 f   c8_CusakisME4901arcs2.obj
 0001:00062a10       _c8_k_eml_xaxpy            10063a10 f   c8_CusakisME4901arcs2.obj
 0001:00062ce0       _c8_l_eml_xaxpy            10063ce0 f   c8_CusakisME4901arcs2.obj
 0001:00062fb0       _c8_j_eml_xscal            10063fb0 f   c8_CusakisME4901arcs2.obj
 0001:00063160       _c8_k_eml_xscal            10064160 f   c8_CusakisME4901arcs2.obj
 0001:00063320       _c8_b_below_threshold      10064320 f   c8_CusakisME4901arcs2.obj
 0001:00063330       _c8_b_eml_xrotg            10064330 f   c8_CusakisME4901arcs2.obj
 0001:000633e0       _c8_c_eml_xrot             100643e0 f   c8_CusakisME4901arcs2.obj
 0001:00063800       _c8_d_eml_xrot             10064800 f   c8_CusakisME4901arcs2.obj
 0001:00063c20       _c8_c_eml_xswap            10064c20 f   c8_CusakisME4901arcs2.obj
 0001:00063ea0       _c8_d_eml_xswap            10064ea0 f   c8_CusakisME4901arcs2.obj
 0001:00064100       _c8_c_eml_xgemm            10065100 f   c8_CusakisME4901arcs2.obj
 0001:00064740       _c8_l_eml_xscal            10065740 f   c8_CusakisME4901arcs2.obj
 0001:00064880       _c8_m_eml_xaxpy            10065880 f   c8_CusakisME4901arcs2.obj
 0001:00064ad0       _c8_m_eml_xscal            10065ad0 f   c8_CusakisME4901arcs2.obj
 0001:00064c10       _c8_n_eml_xaxpy            10065c10 f   c8_CusakisME4901arcs2.obj
 0001:00064d00       _c8_o_eml_xaxpy            10065d00 f   c8_CusakisME4901arcs2.obj
 0001:00064e80       _c8_n_eml_xscal            10065e80 f   c8_CusakisME4901arcs2.obj
 0001:00064fd0       _c8_p_eml_xaxpy            10065fd0 f   c8_CusakisME4901arcs2.obj
 0001:00065210       _c8_d_eml_xgemm            10066210 f   c8_CusakisME4901arcs2.obj
 0001:00065850       _sf_opaque_get_sim_state_c8_CusakisME4901arcs2 10066850 f   c8_CusakisME4901arcs2.obj
 0001:00065870       _sf_opaque_set_sim_state_c8_CusakisME4901arcs2 10066870 f   c8_CusakisME4901arcs2.obj
 0001:00065890       _sf_opaque_terminate_c8_CusakisME4901arcs2 10066890 f   c8_CusakisME4901arcs2.obj
 0001:00065900       _finalize_c8_CusakisME4901arcs2 10066900 f   c8_CusakisME4901arcs2.obj
 0001:00065910       _sf_opaque_init_subchart_simstructs 10066910 f   c8_CusakisME4901arcs2.obj
 0001:00065930       _initSimStructsc8_CusakisME4901arcs2 10066930 f   c8_CusakisME4901arcs2.obj
 0001:00065940       _mdlRTW_c8_CusakisME4901arcs2 10066940 f   c8_CusakisME4901arcs2.obj
 0001:00066140       _get_sim_state_c9_CusakisME4901arcs2 10067140 f   c9_CusakisME4901arcs2.obj
 0001:00066390       _sf_get_sim_state_info_c9_CusakisME4901arcs2 10067390 f   c9_CusakisME4901arcs2.obj
 0001:00066530       _set_sim_state_c9_CusakisME4901arcs2 10067530 f   c9_CusakisME4901arcs2.obj
 0001:000666d0       _c9_update_debugger_state_c9_CusakisME4901arcs2 100676d0 f   c9_CusakisME4901arcs2.obj
 0001:000666e0       _c9_emlrt_marshallIn       100676e0 f   c9_CusakisME4901arcs2.obj
 0001:00066730       _c9_b_emlrt_marshallIn     10067730 f   c9_CusakisME4901arcs2.obj
 0001:00066780       _c9_c_emlrt_marshallIn     10067780 f   c9_CusakisME4901arcs2.obj
 0001:000667d0       _c9_d_emlrt_marshallIn     100677d0 f   c9_CusakisME4901arcs2.obj
 0001:00066850       _c9_e_emlrt_marshallIn     10067850 f   c9_CusakisME4901arcs2.obj
 0001:000668a0       _c9_f_emlrt_marshallIn     100678a0 f   c9_CusakisME4901arcs2.obj
 0001:00066910       _c9_h_emlrt_marshallIn     10067910 f   c9_CusakisME4901arcs2.obj
 0001:00066960       _c9_i_emlrt_marshallIn     10067960 f   c9_CusakisME4901arcs2.obj
 0001:00066a10       _mdlProcessParameters_c9_CusakisME4901arcs2 10067a10 f   c9_CusakisME4901arcs2.obj
 0001:00066ab0       _initialize_params_c9_CusakisME4901arcs2 10067ab0 f   c9_CusakisME4901arcs2.obj
 0001:00066ac0       _mdlSetWorkWidths_c9_CusakisME4901arcs2 10067ac0 f   c9_CusakisME4901arcs2.obj
 0001:00066e70       _sf_get_instance_specialization 10067e70 f   c9_CusakisME4901arcs2.obj
 0001:00066e80       _mdlStart_c9_CusakisME4901arcs2 10067e80 f   c9_CusakisME4901arcs2.obj
 0001:00066ff0       _init_dsm_address_info     10067ff0 f   c9_CusakisME4901arcs2.obj
 0001:00067000       _chart_debug_initialization 10068000 f   c9_CusakisME4901arcs2.obj
 0001:000679c0       _init_script_number_translation 100689c0 f   c9_CusakisME4901arcs2.obj
 0001:000679d0       _c9_sf_marshallOut         100689d0 f   c9_CusakisME4901arcs2.obj
 0001:00067a50       _c9_sf_marshallIn          10068a50 f   c9_CusakisME4901arcs2.obj
 0001:00067ad0       _c9_b_sf_marshallOut       10068ad0 f   c9_CusakisME4901arcs2.obj
 0001:00067bb0       _c9_b_sf_marshallIn        10068bb0 f   c9_CusakisME4901arcs2.obj
 0001:00067c60       _c9_c_sf_marshallOut       10068c60 f   c9_CusakisME4901arcs2.obj
 0001:00067d20       _c9_c_sf_marshallIn        10068d20 f   c9_CusakisME4901arcs2.obj
 0001:00067dc0       _c9_d_sf_marshallOut       10068dc0 f   c9_CusakisME4901arcs2.obj
 0001:00067ea0       _c9_e_sf_marshallOut       10068ea0 f   c9_CusakisME4901arcs2.obj
 0001:00067f80       _sf_opaque_initialize_c9_CusakisME4901arcs2 10068f80 f   c9_CusakisME4901arcs2.obj
 0001:00067fb0       _initialize_c9_CusakisME4901arcs2 10068fb0 f   c9_CusakisME4901arcs2.obj
 0001:00067ff0       _sf_opaque_enable_c9_CusakisME4901arcs2 10068ff0 f   c9_CusakisME4901arcs2.obj
 0001:00068010       _enable_c9_CusakisME4901arcs2 10069010 f   c9_CusakisME4901arcs2.obj
 0001:00068030       _sf_opaque_disable_c9_CusakisME4901arcs2 10069030 f   c9_CusakisME4901arcs2.obj
 0001:00068050       _disable_c9_CusakisME4901arcs2 10069050 f   c9_CusakisME4901arcs2.obj
 0001:00068070       _sf_opaque_gateway_c9_CusakisME4901arcs2 10069070 f   c9_CusakisME4901arcs2.obj
 0001:00068090       _sf_c9_CusakisME4901arcs2  10069090 f   c9_CusakisME4901arcs2.obj
 0001:000693a0       _sf_opaque_get_sim_state_c9_CusakisME4901arcs2 1006a3a0 f   c9_CusakisME4901arcs2.obj
 0001:000693c0       _sf_opaque_set_sim_state_c9_CusakisME4901arcs2 1006a3c0 f   c9_CusakisME4901arcs2.obj
 0001:000693e0       _sf_opaque_terminate_c9_CusakisME4901arcs2 1006a3e0 f   c9_CusakisME4901arcs2.obj
 0001:00069450       _finalize_c9_CusakisME4901arcs2 1006a450 f   c9_CusakisME4901arcs2.obj
 0001:00069460       _sf_opaque_init_subchart_simstructs 1006a460 f   c9_CusakisME4901arcs2.obj
 0001:00069480       _initSimStructsc9_CusakisME4901arcs2 1006a480 f   c9_CusakisME4901arcs2.obj
 0001:00069490       _mdlRTW_c9_CusakisME4901arcs2 1006a490 f   c9_CusakisME4901arcs2.obj
 0001:00069a60       _c10_info_helper           1006aa60 f   c10_CusakisME4901arcs2.obj
 0001:0006d430       _get_sim_state_c10_CusakisME4901arcs2 1006e430 f   c10_CusakisME4901arcs2.obj
 0001:0006de60       _sf_get_sim_state_info_c10_CusakisME4901arcs2 1006ee60 f   c10_CusakisME4901arcs2.obj
 0001:0006e000       _set_sim_state_c10_CusakisME4901arcs2 1006f000 f   c10_CusakisME4901arcs2.obj
 0001:0006e710       _c10_update_debugger_state_c10_CusakisME4901arcs2 1006f710 f   c10_CusakisME4901arcs2.obj
 0001:0006e720       _c10_emlrt_marshallIn      1006f720 f   c10_CusakisME4901arcs2.obj
 0001:0006e770       _c10_b_emlrt_marshallIn    1006f770 f   c10_CusakisME4901arcs2.obj
 0001:0006e7f0       _c10_c_emlrt_marshallIn    1006f7f0 f   c10_CusakisME4901arcs2.obj
 0001:0006e840       _c10_d_emlrt_marshallIn    1006f840 f   c10_CusakisME4901arcs2.obj
 0001:0006e890       _c10_e_emlrt_marshallIn    1006f890 f   c10_CusakisME4901arcs2.obj
 0001:0006e8e0       _c10_f_emlrt_marshallIn    1006f8e0 f   c10_CusakisME4901arcs2.obj
 0001:0006e970       _c10_g_emlrt_marshallIn    1006f970 f   c10_CusakisME4901arcs2.obj
 0001:0006e9c0       _c10_h_emlrt_marshallIn    1006f9c0 f   c10_CusakisME4901arcs2.obj
 0001:0006ea60       _c10_i_emlrt_marshallIn    1006fa60 f   c10_CusakisME4901arcs2.obj
 0001:0006eab0       _c10_j_emlrt_marshallIn    1006fab0 f   c10_CusakisME4901arcs2.obj
 0001:0006eb20       _c10_l_emlrt_marshallIn    1006fb20 f   c10_CusakisME4901arcs2.obj
 0001:0006eb70       _c10_m_emlrt_marshallIn    1006fb70 f   c10_CusakisME4901arcs2.obj
 0001:0006ec20       _mdlProcessParameters_c10_CusakisME4901arcs2 1006fc20 f   c10_CusakisME4901arcs2.obj
 0001:0006ecc0       _initialize_params_c10_CusakisME4901arcs2 1006fcc0 f   c10_CusakisME4901arcs2.obj
 0001:0006ecd0       _mdlSetWorkWidths_c10_CusakisME4901arcs2 1006fcd0 f   c10_CusakisME4901arcs2.obj
 0001:0006f210       _sf_get_instance_specialization 10070210 f   c10_CusakisME4901arcs2.obj
 0001:0006f220       _mdlStart_c10_CusakisME4901arcs2 10070220 f   c10_CusakisME4901arcs2.obj
 0001:0006f390       _init_dsm_address_info     10070390 f   c10_CusakisME4901arcs2.obj
 0001:0006f3a0       _chart_debug_initialization 100703a0 f   c10_CusakisME4901arcs2.obj
 0001:00070d10       _init_script_number_translation 10071d10 f   c10_CusakisME4901arcs2.obj
 0001:00070d20       _c10_sf_marshallOut        10071d20 f   c10_CusakisME4901arcs2.obj
 0001:00070e00       _c10_sf_marshallIn         10071e00 f   c10_CusakisME4901arcs2.obj
 0001:00070eb0       _c10_b_sf_marshallOut      10071eb0 f   c10_CusakisME4901arcs2.obj
 0001:00070f30       _c10_b_sf_marshallIn       10071f30 f   c10_CusakisME4901arcs2.obj
 0001:00070fb0       _c10_c_sf_marshallOut      10071fb0 f   c10_CusakisME4901arcs2.obj
 0001:00071150       _c10_c_sf_marshallIn       10072150 f   c10_CusakisME4901arcs2.obj
 0001:00071230       _c10_d_sf_marshallOut      10072230 f   c10_CusakisME4901arcs2.obj
 0001:000713e0       _c10_d_sf_marshallIn       100723e0 f   c10_CusakisME4901arcs2.obj
 0001:00071510       _c10_e_sf_marshallOut      10072510 f   c10_CusakisME4901arcs2.obj
 0001:000715d0       _c10_e_sf_marshallIn       100725d0 f   c10_CusakisME4901arcs2.obj
 0001:00071670       _c10_f_sf_marshallOut      10072670 f   c10_CusakisME4901arcs2.obj
 0001:00071750       _c10_g_sf_marshallOut      10072750 f   c10_CusakisME4901arcs2.obj
 0001:000718f0       _c10_h_sf_marshallOut      100728f0 f   c10_CusakisME4901arcs2.obj
 0001:00071ab0       _c10_i_sf_marshallOut      10072ab0 f   c10_CusakisME4901arcs2.obj
 0001:00071bb0       _c10_j_sf_marshallOut      10072bb0 f   c10_CusakisME4901arcs2.obj
 0001:00071cc0       _c10_k_sf_marshallOut      10072cc0 f   c10_CusakisME4901arcs2.obj
 0001:00071e00       _sf_opaque_initialize_c10_CusakisME4901arcs2 10072e00 f   c10_CusakisME4901arcs2.obj
 0001:00071e30       _initialize_c10_CusakisME4901arcs2 10072e30 f   c10_CusakisME4901arcs2.obj
 0001:00071e70       _sf_opaque_enable_c10_CusakisME4901arcs2 10072e70 f   c10_CusakisME4901arcs2.obj
 0001:00071e90       _enable_c10_CusakisME4901arcs2 10072e90 f   c10_CusakisME4901arcs2.obj
 0001:00071eb0       _sf_opaque_disable_c10_CusakisME4901arcs2 10072eb0 f   c10_CusakisME4901arcs2.obj
 0001:00071ed0       _disable_c10_CusakisME4901arcs2 10072ed0 f   c10_CusakisME4901arcs2.obj
 0001:00071ef0       _sf_opaque_gateway_c10_CusakisME4901arcs2 10072ef0 f   c10_CusakisME4901arcs2.obj
 0001:00071f10       _sf_c10_CusakisME4901arcs2 10072f10 f   c10_CusakisME4901arcs2.obj
 0001:00073d40       _c10_collision_function    10074d40 f   c10_CusakisME4901arcs2.obj
 0001:00078fb0       _c10_eml_scalar_eg         10079fb0 f   c10_CusakisME4901arcs2.obj
 0001:00078fc0       _c10_dot                   10079fc0 f   c10_CusakisME4901arcs2.obj
 0001:00079110       _c10_b_eml_scalar_eg       1007a110 f   c10_CusakisME4901arcs2.obj
 0001:00079120       _c10_norm                  1007a120 f   c10_CusakisME4901arcs2.obj
 0001:00079260       _c10_realmin               1007a260 f   c10_CusakisME4901arcs2.obj
 0001:00079270       _c10_check_forloop_overflow_error 1007a270 f   c10_CusakisME4901arcs2.obj
 0001:000793a0       _c10_b_check_forloop_overflow_error 1007a3a0 f   c10_CusakisME4901arcs2.obj
 0001:000794d0       _c10_cross                 1007a4d0 f   c10_CusakisME4901arcs2.obj
 0001:000795d0       _c10_b_norm                1007a5d0 f   c10_CusakisME4901arcs2.obj
 0001:00079710       _c10_b_dot                 1007a710 f   c10_CusakisME4901arcs2.obj
 0001:00079860       _c10_c_eml_scalar_eg       1007a860 f   c10_CusakisME4901arcs2.obj
 0001:00079870       _sf_opaque_get_sim_state_c10_CusakisME4901arcs2 1007a870 f   c10_CusakisME4901arcs2.obj
 0001:00079890       _sf_opaque_set_sim_state_c10_CusakisME4901arcs2 1007a890 f   c10_CusakisME4901arcs2.obj
 0001:000798b0       _sf_opaque_terminate_c10_CusakisME4901arcs2 1007a8b0 f   c10_CusakisME4901arcs2.obj
 0001:00079920       _finalize_c10_CusakisME4901arcs2 1007a920 f   c10_CusakisME4901arcs2.obj
 0001:00079930       _sf_opaque_init_subchart_simstructs 1007a930 f   c10_CusakisME4901arcs2.obj
 0001:00079950       _initSimStructsc10_CusakisME4901arcs2 1007a950 f   c10_CusakisME4901arcs2.obj
 0001:00079960       _mdlRTW_c10_CusakisME4901arcs2 1007a960 f   c10_CusakisME4901arcs2.obj
 0001:0007a100       _get_sim_state_c11_CusakisME4901arcs2 1007b100 f   c11_CusakisME4901arcs2.obj
 0001:0007a250       _sf_get_sim_state_info_c11_CusakisME4901arcs2 1007b250 f   c11_CusakisME4901arcs2.obj
 0001:0007a3f0       _set_sim_state_c11_CusakisME4901arcs2 1007b3f0 f   c11_CusakisME4901arcs2.obj
 0001:0007a4f0       _c11_update_debugger_state_c11_CusakisME4901arcs2 1007b4f0 f   c11_CusakisME4901arcs2.obj
 0001:0007a500       _c11_emlrt_marshallIn      1007b500 f   c11_CusakisME4901arcs2.obj
 0001:0007a550       _c11_b_emlrt_marshallIn    1007b550 f   c11_CusakisME4901arcs2.obj
 0001:0007a5d0       _c11_e_emlrt_marshallIn    1007b5d0 f   c11_CusakisME4901arcs2.obj
 0001:0007a620       _c11_f_emlrt_marshallIn    1007b620 f   c11_CusakisME4901arcs2.obj
 0001:0007a6d0       _mdlProcessParameters_c11_CusakisME4901arcs2 1007b6d0 f   c11_CusakisME4901arcs2.obj
 0001:0007a770       _initialize_params_c11_CusakisME4901arcs2 1007b770 f   c11_CusakisME4901arcs2.obj
 0001:0007a780       _mdlSetWorkWidths_c11_CusakisME4901arcs2 1007b780 f   c11_CusakisME4901arcs2.obj
 0001:0007ab10       _sf_get_instance_specialization 1007bb10 f   c11_CusakisME4901arcs2.obj
 0001:0007ab20       _mdlStart_c11_CusakisME4901arcs2 1007bb20 f   c11_CusakisME4901arcs2.obj
 0001:0007ac90       _init_dsm_address_info     1007bc90 f   c11_CusakisME4901arcs2.obj
 0001:0007aca0       _chart_debug_initialization 1007bca0 f   c11_CusakisME4901arcs2.obj
 0001:0007b1e0       _init_script_number_translation 1007c1e0 f   c11_CusakisME4901arcs2.obj
 0001:0007b1f0       _c11_sf_marshallOut        1007c1f0 f   c11_CusakisME4901arcs2.obj
 0001:0007b2f0       _c11_sf_marshallIn         1007c2f0 f   c11_CusakisME4901arcs2.obj
 0001:0007b3a0       _c11_b_sf_marshallOut      1007c3a0 f   c11_CusakisME4901arcs2.obj
 0001:0007b520       _sf_opaque_initialize_c11_CusakisME4901arcs2 1007c520 f   c11_CusakisME4901arcs2.obj
 0001:0007b550       _initialize_c11_CusakisME4901arcs2 1007c550 f   c11_CusakisME4901arcs2.obj
 0001:0007b590       _sf_opaque_enable_c11_CusakisME4901arcs2 1007c590 f   c11_CusakisME4901arcs2.obj
 0001:0007b5b0       _enable_c11_CusakisME4901arcs2 1007c5b0 f   c11_CusakisME4901arcs2.obj
 0001:0007b5d0       _sf_opaque_disable_c11_CusakisME4901arcs2 1007c5d0 f   c11_CusakisME4901arcs2.obj
 0001:0007b5f0       _disable_c11_CusakisME4901arcs2 1007c5f0 f   c11_CusakisME4901arcs2.obj
 0001:0007b610       _sf_opaque_gateway_c11_CusakisME4901arcs2 1007c610 f   c11_CusakisME4901arcs2.obj
 0001:0007b630       _sf_c11_CusakisME4901arcs2 1007c630 f   c11_CusakisME4901arcs2.obj
 0001:0007c160       _c11_c_sf_marshallOut      1007d160 f   c11_CusakisME4901arcs2.obj
 0001:0007c1e0       _c11_b_sf_marshallIn       1007d1e0 f   c11_CusakisME4901arcs2.obj
 0001:0007c260       _c11_c_emlrt_marshallIn    1007d260 f   c11_CusakisME4901arcs2.obj
 0001:0007c2b0       _sf_opaque_get_sim_state_c11_CusakisME4901arcs2 1007d2b0 f   c11_CusakisME4901arcs2.obj
 0001:0007c2d0       _sf_opaque_set_sim_state_c11_CusakisME4901arcs2 1007d2d0 f   c11_CusakisME4901arcs2.obj
 0001:0007c2f0       _sf_opaque_terminate_c11_CusakisME4901arcs2 1007d2f0 f   c11_CusakisME4901arcs2.obj
 0001:0007c360       _finalize_c11_CusakisME4901arcs2 1007d360 f   c11_CusakisME4901arcs2.obj
 0001:0007c370       _sf_opaque_init_subchart_simstructs 1007d370 f   c11_CusakisME4901arcs2.obj
 0001:0007c390       _initSimStructsc11_CusakisME4901arcs2 1007d390 f   c11_CusakisME4901arcs2.obj
 0001:0007c3a0       _mdlRTW_c11_CusakisME4901arcs2 1007d3a0 f   c11_CusakisME4901arcs2.obj
 0001:0007cb40       _get_sim_state_c12_CusakisME4901arcs2 1007db40 f   c12_CusakisME4901arcs2.obj
 0001:0007cce0       _sf_get_sim_state_info_c12_CusakisME4901arcs2 1007dce0 f   c12_CusakisME4901arcs2.obj
 0001:0007ce80       _set_sim_state_c12_CusakisME4901arcs2 1007de80 f   c12_CusakisME4901arcs2.obj
 0001:0007cf80       _c12_update_debugger_state_c12_CusakisME4901arcs2 1007df80 f   c12_CusakisME4901arcs2.obj
 0001:0007cf90       _c12_emlrt_marshallIn      1007df90 f   c12_CusakisME4901arcs2.obj
 0001:0007cfe0       _c12_b_emlrt_marshallIn    1007dfe0 f   c12_CusakisME4901arcs2.obj
 0001:0007d070       _c12_e_emlrt_marshallIn    1007e070 f   c12_CusakisME4901arcs2.obj
 0001:0007d0c0       _c12_f_emlrt_marshallIn    1007e0c0 f   c12_CusakisME4901arcs2.obj
 0001:0007d170       _mdlProcessParameters_c12_CusakisME4901arcs2 1007e170 f   c12_CusakisME4901arcs2.obj
 0001:0007d210       _initialize_params_c12_CusakisME4901arcs2 1007e210 f   c12_CusakisME4901arcs2.obj
 0001:0007d220       _mdlSetWorkWidths_c12_CusakisME4901arcs2 1007e220 f   c12_CusakisME4901arcs2.obj
 0001:0007d5b0       _sf_get_instance_specialization 1007e5b0 f   c12_CusakisME4901arcs2.obj
 0001:0007d5c0       _mdlStart_c12_CusakisME4901arcs2 1007e5c0 f   c12_CusakisME4901arcs2.obj
 0001:0007d730       _init_dsm_address_info     1007e730 f   c12_CusakisME4901arcs2.obj
 0001:0007d740       _chart_debug_initialization 1007e740 f   c12_CusakisME4901arcs2.obj
 0001:0007dc80       _init_script_number_translation 1007ec80 f   c12_CusakisME4901arcs2.obj
 0001:0007dc90       _c12_sf_marshallOut        1007ec90 f   c12_CusakisME4901arcs2.obj
 0001:0007ddc0       _c12_sf_marshallIn         1007edc0 f   c12_CusakisME4901arcs2.obj
 0001:0007de80       _c12_b_sf_marshallOut      1007ee80 f   c12_CusakisME4901arcs2.obj
 0001:0007e010       _sf_opaque_initialize_c12_CusakisME4901arcs2 1007f010 f   c12_CusakisME4901arcs2.obj
 0001:0007e040       _initialize_c12_CusakisME4901arcs2 1007f040 f   c12_CusakisME4901arcs2.obj
 0001:0007e080       _sf_opaque_enable_c12_CusakisME4901arcs2 1007f080 f   c12_CusakisME4901arcs2.obj
 0001:0007e0a0       _enable_c12_CusakisME4901arcs2 1007f0a0 f   c12_CusakisME4901arcs2.obj
 0001:0007e0c0       _sf_opaque_disable_c12_CusakisME4901arcs2 1007f0c0 f   c12_CusakisME4901arcs2.obj
 0001:0007e0e0       _disable_c12_CusakisME4901arcs2 1007f0e0 f   c12_CusakisME4901arcs2.obj
 0001:0007e100       _sf_opaque_gateway_c12_CusakisME4901arcs2 1007f100 f   c12_CusakisME4901arcs2.obj
 0001:0007e120       _sf_c12_CusakisME4901arcs2 1007f120 f   c12_CusakisME4901arcs2.obj
 0001:0007ec90       _c12_c_sf_marshallOut      1007fc90 f   c12_CusakisME4901arcs2.obj
 0001:0007ed10       _c12_b_sf_marshallIn       1007fd10 f   c12_CusakisME4901arcs2.obj
 0001:0007ed90       _c12_c_emlrt_marshallIn    1007fd90 f   c12_CusakisME4901arcs2.obj
 0001:0007ede0       _sf_opaque_get_sim_state_c12_CusakisME4901arcs2 1007fde0 f   c12_CusakisME4901arcs2.obj
 0001:0007ee00       _sf_opaque_set_sim_state_c12_CusakisME4901arcs2 1007fe00 f   c12_CusakisME4901arcs2.obj
 0001:0007ee20       _sf_opaque_terminate_c12_CusakisME4901arcs2 1007fe20 f   c12_CusakisME4901arcs2.obj
 0001:0007ee90       _finalize_c12_CusakisME4901arcs2 1007fe90 f   c12_CusakisME4901arcs2.obj
 0001:0007eea0       _sf_opaque_init_subchart_simstructs 1007fea0 f   c12_CusakisME4901arcs2.obj
 0001:0007eec0       _initSimStructsc12_CusakisME4901arcs2 1007fec0 f   c12_CusakisME4901arcs2.obj
 0001:0007eed0       _mdlRTW_c12_CusakisME4901arcs2 1007fed0 f   c12_CusakisME4901arcs2.obj
 0001:0007f5b0       _get_sim_state_c13_CusakisME4901arcs2 100805b0 f   c13_CusakisME4901arcs2.obj
 0001:0007f700       _sf_get_sim_state_info_c13_CusakisME4901arcs2 10080700 f   c13_CusakisME4901arcs2.obj
 0001:0007f8a0       _set_sim_state_c13_CusakisME4901arcs2 100808a0 f   c13_CusakisME4901arcs2.obj
 0001:0007f9a0       _c13_update_debugger_state_c13_CusakisME4901arcs2 100809a0 f   c13_CusakisME4901arcs2.obj
 0001:0007f9b0       _c13_emlrt_marshallIn      100809b0 f   c13_CusakisME4901arcs2.obj
 0001:0007fa00       _c13_b_emlrt_marshallIn    10080a00 f   c13_CusakisME4901arcs2.obj
 0001:0007fa80       _c13_e_emlrt_marshallIn    10080a80 f   c13_CusakisME4901arcs2.obj
 0001:0007fad0       _c13_f_emlrt_marshallIn    10080ad0 f   c13_CusakisME4901arcs2.obj
 0001:0007fb80       _mdlProcessParameters_c13_CusakisME4901arcs2 10080b80 f   c13_CusakisME4901arcs2.obj
 0001:0007fc20       _initialize_params_c13_CusakisME4901arcs2 10080c20 f   c13_CusakisME4901arcs2.obj
 0001:0007fc30       _mdlSetWorkWidths_c13_CusakisME4901arcs2 10080c30 f   c13_CusakisME4901arcs2.obj
 0001:00080010       _sf_get_instance_specialization 10081010 f   c13_CusakisME4901arcs2.obj
 0001:00080020       _mdlStart_c13_CusakisME4901arcs2 10081020 f   c13_CusakisME4901arcs2.obj
 0001:00080190       _init_dsm_address_info     10081190 f   c13_CusakisME4901arcs2.obj
 0001:000801a0       _chart_debug_initialization 100811a0 f   c13_CusakisME4901arcs2.obj
 0001:00080830       _init_script_number_translation 10081830 f   c13_CusakisME4901arcs2.obj
 0001:00080840       _c13_sf_marshallOut        10081840 f   c13_CusakisME4901arcs2.obj
 0001:00080920       _c13_sf_marshallIn         10081920 f   c13_CusakisME4901arcs2.obj
 0001:000809d0       _c13_b_sf_marshallOut      100819d0 f   c13_CusakisME4901arcs2.obj
 0001:00080a50       _sf_opaque_initialize_c13_CusakisME4901arcs2 10081a50 f   c13_CusakisME4901arcs2.obj
 0001:00080a80       _initialize_c13_CusakisME4901arcs2 10081a80 f   c13_CusakisME4901arcs2.obj
 0001:00080ac0       _sf_opaque_enable_c13_CusakisME4901arcs2 10081ac0 f   c13_CusakisME4901arcs2.obj
 0001:00080ae0       _enable_c13_CusakisME4901arcs2 10081ae0 f   c13_CusakisME4901arcs2.obj
 0001:00080b00       _sf_opaque_disable_c13_CusakisME4901arcs2 10081b00 f   c13_CusakisME4901arcs2.obj
 0001:00080b20       _disable_c13_CusakisME4901arcs2 10081b20 f   c13_CusakisME4901arcs2.obj
 0001:00080b40       _sf_opaque_gateway_c13_CusakisME4901arcs2 10081b40 f   c13_CusakisME4901arcs2.obj
 0001:00080b60       _sf_c13_CusakisME4901arcs2 10081b60 f   c13_CusakisME4901arcs2.obj
 0001:00081200       _c13_b_sf_marshallIn       10082200 f   c13_CusakisME4901arcs2.obj
 0001:00081280       _c13_c_emlrt_marshallIn    10082280 f   c13_CusakisME4901arcs2.obj
 0001:000812d0       _sf_opaque_get_sim_state_c13_CusakisME4901arcs2 100822d0 f   c13_CusakisME4901arcs2.obj
 0001:000812f0       _sf_opaque_set_sim_state_c13_CusakisME4901arcs2 100822f0 f   c13_CusakisME4901arcs2.obj
 0001:00081310       _sf_opaque_terminate_c13_CusakisME4901arcs2 10082310 f   c13_CusakisME4901arcs2.obj
 0001:00081380       _finalize_c13_CusakisME4901arcs2 10082380 f   c13_CusakisME4901arcs2.obj
 0001:00081390       _sf_opaque_init_subchart_simstructs 10082390 f   c13_CusakisME4901arcs2.obj
 0001:000813b0       _initSimStructsc13_CusakisME4901arcs2 100823b0 f   c13_CusakisME4901arcs2.obj
 0001:000813c0       _mdlRTW_c13_CusakisME4901arcs2 100823c0 f   c13_CusakisME4901arcs2.obj
 0001:00081d50       _get_sim_state_c14_CusakisME4901arcs2 10082d50 f   c14_CusakisME4901arcs2.obj
 0001:00081f40       _sf_get_sim_state_info_c14_CusakisME4901arcs2 10082f40 f   c14_CusakisME4901arcs2.obj
 0001:000820e0       _set_sim_state_c14_CusakisME4901arcs2 100830e0 f   c14_CusakisME4901arcs2.obj
 0001:00082250       _c14_update_debugger_state_c14_CusakisME4901arcs2 10083250 f   c14_CusakisME4901arcs2.obj
 0001:00082260       _c14_emlrt_marshallIn      10083260 f   c14_CusakisME4901arcs2.obj
 0001:000822b0       _c14_b_emlrt_marshallIn    100832b0 f   c14_CusakisME4901arcs2.obj
 0001:00082340       _c14_c_emlrt_marshallIn    10083340 f   c14_CusakisME4901arcs2.obj
 0001:00082390       _c14_d_emlrt_marshallIn    10083390 f   c14_CusakisME4901arcs2.obj
 0001:00082410       _c14_g_emlrt_marshallIn    10083410 f   c14_CusakisME4901arcs2.obj
 0001:00082460       _c14_h_emlrt_marshallIn    10083460 f   c14_CusakisME4901arcs2.obj
 0001:00082510       _mdlProcessParameters_c14_CusakisME4901arcs2 10083510 f   c14_CusakisME4901arcs2.obj
 0001:000825b0       _initialize_params_c14_CusakisME4901arcs2 100835b0 f   c14_CusakisME4901arcs2.obj
 0001:000825c0       _mdlSetWorkWidths_c14_CusakisME4901arcs2 100835c0 f   c14_CusakisME4901arcs2.obj
 0001:00082950       _sf_get_instance_specialization 10083950 f   c14_CusakisME4901arcs2.obj
 0001:00082960       _mdlStart_c14_CusakisME4901arcs2 10083960 f   c14_CusakisME4901arcs2.obj
 0001:00082ad0       _init_dsm_address_info     10083ad0 f   c14_CusakisME4901arcs2.obj
 0001:00082ae0       _chart_debug_initialization 10083ae0 f   c14_CusakisME4901arcs2.obj
 0001:00083070       _init_script_number_translation 10084070 f   c14_CusakisME4901arcs2.obj
 0001:00083080       _c14_sf_marshallOut        10084080 f   c14_CusakisME4901arcs2.obj
 0001:000831c0       _c14_sf_marshallIn         100841c0 f   c14_CusakisME4901arcs2.obj
 0001:000832a0       _c14_b_sf_marshallOut      100842a0 f   c14_CusakisME4901arcs2.obj
 0001:00083380       _c14_b_sf_marshallIn       10084380 f   c14_CusakisME4901arcs2.obj
 0001:00083430       _c14_c_sf_marshallOut      10084430 f   c14_CusakisME4901arcs2.obj
 0001:00083510       _sf_opaque_initialize_c14_CusakisME4901arcs2 10084510 f   c14_CusakisME4901arcs2.obj
 0001:00083540       _initialize_c14_CusakisME4901arcs2 10084540 f   c14_CusakisME4901arcs2.obj
 0001:00083580       _sf_opaque_enable_c14_CusakisME4901arcs2 10084580 f   c14_CusakisME4901arcs2.obj
 0001:000835a0       _enable_c14_CusakisME4901arcs2 100845a0 f   c14_CusakisME4901arcs2.obj
 0001:000835c0       _sf_opaque_disable_c14_CusakisME4901arcs2 100845c0 f   c14_CusakisME4901arcs2.obj
 0001:000835e0       _disable_c14_CusakisME4901arcs2 100845e0 f   c14_CusakisME4901arcs2.obj
 0001:00083600       _sf_opaque_gateway_c14_CusakisME4901arcs2 10084600 f   c14_CusakisME4901arcs2.obj
 0001:00083620       _sf_c14_CusakisME4901arcs2 10084620 f   c14_CusakisME4901arcs2.obj
 0001:00083c80       _c14_d_sf_marshallOut      10084c80 f   c14_CusakisME4901arcs2.obj
 0001:00083d00       _c14_c_sf_marshallIn       10084d00 f   c14_CusakisME4901arcs2.obj
 0001:00083d80       _c14_e_emlrt_marshallIn    10084d80 f   c14_CusakisME4901arcs2.obj
 0001:00083dd0       _sf_opaque_get_sim_state_c14_CusakisME4901arcs2 10084dd0 f   c14_CusakisME4901arcs2.obj
 0001:00083df0       _sf_opaque_set_sim_state_c14_CusakisME4901arcs2 10084df0 f   c14_CusakisME4901arcs2.obj
 0001:00083e10       _sf_opaque_terminate_c14_CusakisME4901arcs2 10084e10 f   c14_CusakisME4901arcs2.obj
 0001:00083e80       _finalize_c14_CusakisME4901arcs2 10084e80 f   c14_CusakisME4901arcs2.obj
 0001:00083e90       _sf_opaque_init_subchart_simstructs 10084e90 f   c14_CusakisME4901arcs2.obj
 0001:00083eb0       _initSimStructsc14_CusakisME4901arcs2 10084eb0 f   c14_CusakisME4901arcs2.obj
 0001:00083ec0       _mdlRTW_c14_CusakisME4901arcs2 10084ec0 f   c14_CusakisME4901arcs2.obj
 0001:00085250       _get_sim_state_c15_CusakisME4901arcs2 10086250 f   c15_CusakisME4901arcs2.obj
 0001:000854f0       _sf_get_sim_state_info_c15_CusakisME4901arcs2 100864f0 f   c15_CusakisME4901arcs2.obj
 0001:00085690       _set_sim_state_c15_CusakisME4901arcs2 10086690 f   c15_CusakisME4901arcs2.obj
 0001:000858a0       _c15_update_debugger_state_c15_CusakisME4901arcs2 100868a0 f   c15_CusakisME4901arcs2.obj
 0001:000858b0       _c15_emlrt_marshallIn      100868b0 f   c15_CusakisME4901arcs2.obj
 0001:00085900       _c15_b_emlrt_marshallIn    10086900 f   c15_CusakisME4901arcs2.obj
 0001:00085980       _c15_c_emlrt_marshallIn    10086980 f   c15_CusakisME4901arcs2.obj
 0001:000859d0       _c15_d_emlrt_marshallIn    100869d0 f   c15_CusakisME4901arcs2.obj
 0001:00085a50       _c15_h_emlrt_marshallIn    10086a50 f   c15_CusakisME4901arcs2.obj
 0001:00085aa0       _c15_i_emlrt_marshallIn    10086aa0 f   c15_CusakisME4901arcs2.obj
 0001:00085b50       _mdlProcessParameters_c15_CusakisME4901arcs2 10086b50 f   c15_CusakisME4901arcs2.obj
 0001:00085bf0       _initialize_params_c15_CusakisME4901arcs2 10086bf0 f   c15_CusakisME4901arcs2.obj
 0001:00085d60       _mdlSetWorkWidths_c15_CusakisME4901arcs2 10086d60 f   c15_CusakisME4901arcs2.obj
 0001:00086320       _sf_get_instance_specialization 10087320 f   c15_CusakisME4901arcs2.obj
 0001:00086330       _mdlStart_c15_CusakisME4901arcs2 10087330 f   c15_CusakisME4901arcs2.obj
 0001:000864a0       _init_dsm_address_info     100874a0 f   c15_CusakisME4901arcs2.obj
 0001:000864b0       _chart_debug_initialization 100874b0 f   c15_CusakisME4901arcs2.obj
 0001:00086f90       _init_script_number_translation 10087f90 f   c15_CusakisME4901arcs2.obj
 0001:00086fa0       _c15_sf_marshallOut        10087fa0 f   c15_CusakisME4901arcs2.obj
 0001:00087080       _c15_sf_marshallIn         10088080 f   c15_CusakisME4901arcs2.obj
 0001:00087130       _c15_b_sf_marshallOut      10088130 f   c15_CusakisME4901arcs2.obj
 0001:00087210       _c15_b_sf_marshallIn       10088210 f   c15_CusakisME4901arcs2.obj
 0001:000872c0       _c15_c_sf_marshallOut      100882c0 f   c15_CusakisME4901arcs2.obj
 0001:00087340       _c15_c_sf_marshallIn       10088340 f   c15_CusakisME4901arcs2.obj
 0001:000873c0       _c15_e_emlrt_marshallIn    100883c0 f   c15_CusakisME4901arcs2.obj
 0001:00087410       _c15_d_sf_marshallOut      10088410 f   c15_CusakisME4901arcs2.obj
 0001:00087510       _sf_opaque_initialize_c15_CusakisME4901arcs2 10088510 f   c15_CusakisME4901arcs2.obj
 0001:00087540       _initialize_c15_CusakisME4901arcs2 10088540 f   c15_CusakisME4901arcs2.obj
 0001:00087580       _sf_opaque_enable_c15_CusakisME4901arcs2 10088580 f   c15_CusakisME4901arcs2.obj
 0001:000875a0       _enable_c15_CusakisME4901arcs2 100885a0 f   c15_CusakisME4901arcs2.obj
 0001:000875c0       _sf_opaque_disable_c15_CusakisME4901arcs2 100885c0 f   c15_CusakisME4901arcs2.obj
 0001:000875e0       _disable_c15_CusakisME4901arcs2 100885e0 f   c15_CusakisME4901arcs2.obj
 0001:00087600       _sf_opaque_gateway_c15_CusakisME4901arcs2 10088600 f   c15_CusakisME4901arcs2.obj
 0001:00087620       _sf_c15_CusakisME4901arcs2 10088620 f   c15_CusakisME4901arcs2.obj
 0001:00087a40       _c15_chartstep_c15_CusakisME4901arcs2 10088a40 f   c15_CusakisME4901arcs2.obj
 0001:0008abe0       _c15_e_sf_marshallOut      1008bbe0 f   c15_CusakisME4901arcs2.obj
 0001:0008acf0       _c15_d_sf_marshallIn       1008bcf0 f   c15_CusakisME4901arcs2.obj
 0001:0008ada0       _c15_f_emlrt_marshallIn    1008bda0 f   c15_CusakisME4901arcs2.obj
 0001:0008ae30       _sf_opaque_get_sim_state_c15_CusakisME4901arcs2 1008be30 f   c15_CusakisME4901arcs2.obj
 0001:0008ae50       _sf_opaque_set_sim_state_c15_CusakisME4901arcs2 1008be50 f   c15_CusakisME4901arcs2.obj
 0001:0008ae70       _sf_opaque_terminate_c15_CusakisME4901arcs2 1008be70 f   c15_CusakisME4901arcs2.obj
 0001:0008aee0       _finalize_c15_CusakisME4901arcs2 1008bee0 f   c15_CusakisME4901arcs2.obj
 0001:0008aef0       _sf_opaque_init_subchart_simstructs 1008bef0 f   c15_CusakisME4901arcs2.obj
 0001:0008af10       _initSimStructsc15_CusakisME4901arcs2 1008bf10 f   c15_CusakisME4901arcs2.obj
 0001:0008af20       _mdlRTW_c15_CusakisME4901arcs2 1008bf20 f   c15_CusakisME4901arcs2.obj
 0001:0008bee0       _get_sim_state_c16_CusakisME4901arcs2 1008cee0 f   c16_CusakisME4901arcs2.obj
 0001:0008c100       _sf_get_sim_state_info_c16_CusakisME4901arcs2 1008d100 f   c16_CusakisME4901arcs2.obj
 0001:0008c2a0       _set_sim_state_c16_CusakisME4901arcs2 1008d2a0 f   c16_CusakisME4901arcs2.obj
 0001:0008c410       _c16_update_debugger_state_c16_CusakisME4901arcs2 1008d410 f   c16_CusakisME4901arcs2.obj
 0001:0008c420       _c16_emlrt_marshallIn      1008d420 f   c16_CusakisME4901arcs2.obj
 0001:0008c470       _c16_b_emlrt_marshallIn    1008d470 f   c16_CusakisME4901arcs2.obj
 0001:0008c500       _c16_c_emlrt_marshallIn    1008d500 f   c16_CusakisME4901arcs2.obj
 0001:0008c550       _c16_d_emlrt_marshallIn    1008d550 f   c16_CusakisME4901arcs2.obj
 0001:0008c5d0       _c16_g_emlrt_marshallIn    1008d5d0 f   c16_CusakisME4901arcs2.obj
 0001:0008c620       _c16_h_emlrt_marshallIn    1008d620 f   c16_CusakisME4901arcs2.obj
 0001:0008c6d0       _mdlProcessParameters_c16_CusakisME4901arcs2 1008d6d0 f   c16_CusakisME4901arcs2.obj
 0001:0008c770       _initialize_params_c16_CusakisME4901arcs2 1008d770 f   c16_CusakisME4901arcs2.obj
 0001:0008c780       _mdlSetWorkWidths_c16_CusakisME4901arcs2 1008d780 f   c16_CusakisME4901arcs2.obj
 0001:0008cbc0       _sf_get_instance_specialization 1008dbc0 f   c16_CusakisME4901arcs2.obj
 0001:0008cbd0       _mdlStart_c16_CusakisME4901arcs2 1008dbd0 f   c16_CusakisME4901arcs2.obj
 0001:0008cd40       _init_dsm_address_info     1008dd40 f   c16_CusakisME4901arcs2.obj
 0001:0008cd50       _chart_debug_initialization 1008dd50 f   c16_CusakisME4901arcs2.obj
 0001:0008d6b0       _init_script_number_translation 1008e6b0 f   c16_CusakisME4901arcs2.obj
 0001:0008d6c0       _c16_sf_marshallOut        1008e6c0 f   c16_CusakisME4901arcs2.obj
 0001:0008d800       _c16_sf_marshallIn         1008e800 f   c16_CusakisME4901arcs2.obj
 0001:0008d8e0       _c16_b_sf_marshallOut      1008e8e0 f   c16_CusakisME4901arcs2.obj
 0001:0008d9c0       _c16_b_sf_marshallIn       1008e9c0 f   c16_CusakisME4901arcs2.obj
 0001:0008da70       _c16_c_sf_marshallOut      1008ea70 f   c16_CusakisME4901arcs2.obj
 0001:0008daf0       _sf_opaque_initialize_c16_CusakisME4901arcs2 1008eaf0 f   c16_CusakisME4901arcs2.obj
 0001:0008db20       _initialize_c16_CusakisME4901arcs2 1008eb20 f   c16_CusakisME4901arcs2.obj
 0001:0008db60       _sf_opaque_enable_c16_CusakisME4901arcs2 1008eb60 f   c16_CusakisME4901arcs2.obj
 0001:0008db80       _enable_c16_CusakisME4901arcs2 1008eb80 f   c16_CusakisME4901arcs2.obj
 0001:0008dba0       _sf_opaque_disable_c16_CusakisME4901arcs2 1008eba0 f   c16_CusakisME4901arcs2.obj
 0001:0008dbc0       _disable_c16_CusakisME4901arcs2 1008ebc0 f   c16_CusakisME4901arcs2.obj
 0001:0008dbe0       _sf_opaque_gateway_c16_CusakisME4901arcs2 1008ebe0 f   c16_CusakisME4901arcs2.obj
 0001:0008dc00       _sf_c16_CusakisME4901arcs2 1008ec00 f   c16_CusakisME4901arcs2.obj
 0001:0008e520       _c16_c_sf_marshallIn       1008f520 f   c16_CusakisME4901arcs2.obj
 0001:0008e5a0       _c16_e_emlrt_marshallIn    1008f5a0 f   c16_CusakisME4901arcs2.obj
 0001:0008e5f0       _sf_opaque_get_sim_state_c16_CusakisME4901arcs2 1008f5f0 f   c16_CusakisME4901arcs2.obj
 0001:0008e610       _sf_opaque_set_sim_state_c16_CusakisME4901arcs2 1008f610 f   c16_CusakisME4901arcs2.obj
 0001:0008e630       _sf_opaque_terminate_c16_CusakisME4901arcs2 1008f630 f   c16_CusakisME4901arcs2.obj
 0001:0008e6a0       _finalize_c16_CusakisME4901arcs2 1008f6a0 f   c16_CusakisME4901arcs2.obj
 0001:0008e6b0       _sf_opaque_init_subchart_simstructs 1008f6b0 f   c16_CusakisME4901arcs2.obj
 0001:0008e6d0       _initSimStructsc16_CusakisME4901arcs2 1008f6d0 f   c16_CusakisME4901arcs2.obj
 0001:0008e6e0       _mdlRTW_c16_CusakisME4901arcs2 1008f6e0 f   c16_CusakisME4901arcs2.obj
 0001:0008ecc0       _get_sim_state_c17_CusakisME4901arcs2 1008fcc0 f   c17_CusakisME4901arcs2.obj
 0001:0008ee10       _sf_get_sim_state_info_c17_CusakisME4901arcs2 1008fe10 f   c17_CusakisME4901arcs2.obj
 0001:0008efb0       _set_sim_state_c17_CusakisME4901arcs2 1008ffb0 f   c17_CusakisME4901arcs2.obj
 0001:0008f0b0       _c17_update_debugger_state_c17_CusakisME4901arcs2 100900b0 f   c17_CusakisME4901arcs2.obj
 0001:0008f0c0       _c17_emlrt_marshallIn      100900c0 f   c17_CusakisME4901arcs2.obj
 0001:0008f110       _c17_b_emlrt_marshallIn    10090110 f   c17_CusakisME4901arcs2.obj
 0001:0008f190       _c17_e_emlrt_marshallIn    10090190 f   c17_CusakisME4901arcs2.obj
 0001:0008f1e0       _c17_f_emlrt_marshallIn    100901e0 f   c17_CusakisME4901arcs2.obj
 0001:0008f290       _mdlProcessParameters_c17_CusakisME4901arcs2 10090290 f   c17_CusakisME4901arcs2.obj
 0001:0008f330       _initialize_params_c17_CusakisME4901arcs2 10090330 f   c17_CusakisME4901arcs2.obj
 0001:0008f340       _mdlSetWorkWidths_c17_CusakisME4901arcs2 10090340 f   c17_CusakisME4901arcs2.obj
 0001:0008f6f0       _sf_get_instance_specialization 100906f0 f   c17_CusakisME4901arcs2.obj
 0001:0008f700       _mdlStart_c17_CusakisME4901arcs2 10090700 f   c17_CusakisME4901arcs2.obj
 0001:0008f870       _init_dsm_address_info     10090870 f   c17_CusakisME4901arcs2.obj
 0001:0008f880       _chart_debug_initialization 10090880 f   c17_CusakisME4901arcs2.obj
 0001:0008fe10       _init_script_number_translation 10090e10 f   c17_CusakisME4901arcs2.obj
 0001:0008fe20       _c17_sf_marshallOut        10090e20 f   c17_CusakisME4901arcs2.obj
 0001:0008ff00       _c17_sf_marshallIn         10090f00 f   c17_CusakisME4901arcs2.obj
 0001:0008ffb0       _sf_opaque_initialize_c17_CusakisME4901arcs2 10090fb0 f   c17_CusakisME4901arcs2.obj
 0001:0008ffe0       _initialize_c17_CusakisME4901arcs2 10090fe0 f   c17_CusakisME4901arcs2.obj
 0001:00090020       _sf_opaque_enable_c17_CusakisME4901arcs2 10091020 f   c17_CusakisME4901arcs2.obj
 0001:00090040       _enable_c17_CusakisME4901arcs2 10091040 f   c17_CusakisME4901arcs2.obj
 0001:00090060       _sf_opaque_disable_c17_CusakisME4901arcs2 10091060 f   c17_CusakisME4901arcs2.obj
 0001:00090080       _disable_c17_CusakisME4901arcs2 10091080 f   c17_CusakisME4901arcs2.obj
 0001:000900a0       _sf_opaque_gateway_c17_CusakisME4901arcs2 100910a0 f   c17_CusakisME4901arcs2.obj
 0001:000900c0       _sf_c17_CusakisME4901arcs2 100910c0 f   c17_CusakisME4901arcs2.obj
 0001:000905f0       _c17_b_sf_marshallOut      100915f0 f   c17_CusakisME4901arcs2.obj
 0001:00090670       _c17_b_sf_marshallIn       10091670 f   c17_CusakisME4901arcs2.obj
 0001:000906f0       _c17_c_emlrt_marshallIn    100916f0 f   c17_CusakisME4901arcs2.obj
 0001:00090740       _sf_opaque_get_sim_state_c17_CusakisME4901arcs2 10091740 f   c17_CusakisME4901arcs2.obj
 0001:00090760       _sf_opaque_set_sim_state_c17_CusakisME4901arcs2 10091760 f   c17_CusakisME4901arcs2.obj
 0001:00090780       _sf_opaque_terminate_c17_CusakisME4901arcs2 10091780 f   c17_CusakisME4901arcs2.obj
 0001:000907f0       _finalize_c17_CusakisME4901arcs2 100917f0 f   c17_CusakisME4901arcs2.obj
 0001:00090800       _sf_opaque_init_subchart_simstructs 10091800 f   c17_CusakisME4901arcs2.obj
 0001:00090820       _initSimStructsc17_CusakisME4901arcs2 10091820 f   c17_CusakisME4901arcs2.obj
 0001:00090830       _mdlRTW_c17_CusakisME4901arcs2 10091830 f   c17_CusakisME4901arcs2.obj
 0001:00091160       _get_sim_state_c18_CusakisME4901arcs2 10092160 f   c18_CusakisME4901arcs2.obj
 0001:000912f0       _sf_get_sim_state_info_c18_CusakisME4901arcs2 100922f0 f   c18_CusakisME4901arcs2.obj
 0001:00091490       _set_sim_state_c18_CusakisME4901arcs2 10092490 f   c18_CusakisME4901arcs2.obj
 0001:00091590       _c18_update_debugger_state_c18_CusakisME4901arcs2 10092590 f   c18_CusakisME4901arcs2.obj
 0001:000915a0       _c18_emlrt_marshallIn      100925a0 f   c18_CusakisME4901arcs2.obj
 0001:000915f0       _c18_b_emlrt_marshallIn    100925f0 f   c18_CusakisME4901arcs2.obj
 0001:00091640       _c18_d_emlrt_marshallIn    10092640 f   c18_CusakisME4901arcs2.obj
 0001:00091690       _c18_e_emlrt_marshallIn    10092690 f   c18_CusakisME4901arcs2.obj
 0001:00091740       _mdlProcessParameters_c18_CusakisME4901arcs2 10092740 f   c18_CusakisME4901arcs2.obj
 0001:000917e0       _initialize_params_c18_CusakisME4901arcs2 100927e0 f   c18_CusakisME4901arcs2.obj
 0001:000917f0       _mdlSetWorkWidths_c18_CusakisME4901arcs2 100927f0 f   c18_CusakisME4901arcs2.obj
 0001:00091bf0       _sf_get_instance_specialization 10092bf0 f   c18_CusakisME4901arcs2.obj
 0001:00091c00       _mdlStart_c18_CusakisME4901arcs2 10092c00 f   c18_CusakisME4901arcs2.obj
 0001:00091d70       _init_dsm_address_info     10092d70 f   c18_CusakisME4901arcs2.obj
 0001:00091d80       _chart_debug_initialization 10092d80 f   c18_CusakisME4901arcs2.obj
 0001:00092610       _init_script_number_translation 10093610 f   c18_CusakisME4901arcs2.obj
 0001:00092620       _c18_sf_marshallOut        10093620 f   c18_CusakisME4901arcs2.obj
 0001:000926a0       _c18_sf_marshallIn         100936a0 f   c18_CusakisME4901arcs2.obj
 0001:00092720       _c18_b_sf_marshallOut      10093720 f   c18_CusakisME4901arcs2.obj
 0001:00092800       _sf_opaque_initialize_c18_CusakisME4901arcs2 10093800 f   c18_CusakisME4901arcs2.obj
 0001:00092830       _initialize_c18_CusakisME4901arcs2 10093830 f   c18_CusakisME4901arcs2.obj
 0001:00092870       _sf_opaque_enable_c18_CusakisME4901arcs2 10093870 f   c18_CusakisME4901arcs2.obj
 0001:00092890       _enable_c18_CusakisME4901arcs2 10093890 f   c18_CusakisME4901arcs2.obj
 0001:000928b0       _sf_opaque_disable_c18_CusakisME4901arcs2 100938b0 f   c18_CusakisME4901arcs2.obj
 0001:000928d0       _disable_c18_CusakisME4901arcs2 100938d0 f   c18_CusakisME4901arcs2.obj
 0001:000928f0       _sf_opaque_gateway_c18_CusakisME4901arcs2 100938f0 f   c18_CusakisME4901arcs2.obj
 0001:00092910       _sf_c18_CusakisME4901arcs2 10093910 f   c18_CusakisME4901arcs2.obj
 0001:00093240       _sf_opaque_get_sim_state_c18_CusakisME4901arcs2 10094240 f   c18_CusakisME4901arcs2.obj
 0001:00093260       _sf_opaque_set_sim_state_c18_CusakisME4901arcs2 10094260 f   c18_CusakisME4901arcs2.obj
 0001:00093280       _sf_opaque_terminate_c18_CusakisME4901arcs2 10094280 f   c18_CusakisME4901arcs2.obj
 0001:000932f0       _finalize_c18_CusakisME4901arcs2 100942f0 f   c18_CusakisME4901arcs2.obj
 0001:00093300       _sf_opaque_init_subchart_simstructs 10094300 f   c18_CusakisME4901arcs2.obj
 0001:00093320       _initSimStructsc18_CusakisME4901arcs2 10094320 f   c18_CusakisME4901arcs2.obj
 0001:00093330       _mdlRTW_c18_CusakisME4901arcs2 10094330 f   c18_CusakisME4901arcs2.obj
 0001:00093650       _c19_info_helper           10094650 f   c19_CusakisME4901arcs2.obj
 0001:00094500       _get_sim_state_c19_CusakisME4901arcs2 10095500 f   c19_CusakisME4901arcs2.obj
 0001:00094620       _sf_get_sim_state_info_c19_CusakisME4901arcs2 10095620 f   c19_CusakisME4901arcs2.obj
 0001:000947c0       _set_sim_state_c19_CusakisME4901arcs2 100957c0 f   c19_CusakisME4901arcs2.obj
 0001:00094880       _c19_update_debugger_state_c19_CusakisME4901arcs2 10095880 f   c19_CusakisME4901arcs2.obj
 0001:00094890       _c19_emlrt_marshallIn      10095890 f   c19_CusakisME4901arcs2.obj
 0001:000948e0       _c19_b_emlrt_marshallIn    100958e0 f   c19_CusakisME4901arcs2.obj
 0001:00094930       _c19_d_emlrt_marshallIn    10095930 f   c19_CusakisME4901arcs2.obj
 0001:00094980       _c19_e_emlrt_marshallIn    10095980 f   c19_CusakisME4901arcs2.obj
 0001:00094a30       _mdlProcessParameters_c19_CusakisME4901arcs2 10095a30 f   c19_CusakisME4901arcs2.obj
 0001:00094ad0       _initialize_params_c19_CusakisME4901arcs2 10095ad0 f   c19_CusakisME4901arcs2.obj
 0001:00094be0       _mdlSetWorkWidths_c19_CusakisME4901arcs2 10095be0 f   c19_CusakisME4901arcs2.obj
 0001:000950e0       _sf_get_instance_specialization 100960e0 f   c19_CusakisME4901arcs2.obj
 0001:000950f0       _mdlStart_c19_CusakisME4901arcs2 100960f0 f   c19_CusakisME4901arcs2.obj
 0001:00095260       _init_dsm_address_info     10096260 f   c19_CusakisME4901arcs2.obj
 0001:00095270       _chart_debug_initialization 10096270 f   c19_CusakisME4901arcs2.obj
 0001:00095950       _init_script_number_translation 10096950 f   c19_CusakisME4901arcs2.obj
 0001:00095960       _c19_sf_marshallOut        10096960 f   c19_CusakisME4901arcs2.obj
 0001:000959e0       _c19_sf_marshallIn         100969e0 f   c19_CusakisME4901arcs2.obj
 0001:00095a60       _c19_b_sf_marshallOut      10096a60 f   c19_CusakisME4901arcs2.obj
 0001:00095b40       _sf_opaque_initialize_c19_CusakisME4901arcs2 10096b40 f   c19_CusakisME4901arcs2.obj
 0001:00095b70       _initialize_c19_CusakisME4901arcs2 10096b70 f   c19_CusakisME4901arcs2.obj
 0001:00095bb0       _sf_opaque_enable_c19_CusakisME4901arcs2 10096bb0 f   c19_CusakisME4901arcs2.obj
 0001:00095bd0       _enable_c19_CusakisME4901arcs2 10096bd0 f   c19_CusakisME4901arcs2.obj
 0001:00095bf0       _sf_opaque_disable_c19_CusakisME4901arcs2 10096bf0 f   c19_CusakisME4901arcs2.obj
 0001:00095c10       _disable_c19_CusakisME4901arcs2 10096c10 f   c19_CusakisME4901arcs2.obj
 0001:00095c30       _sf_opaque_gateway_c19_CusakisME4901arcs2 10096c30 f   c19_CusakisME4901arcs2.obj
 0001:00095c50       _sf_c19_CusakisME4901arcs2 10096c50 f   c19_CusakisME4901arcs2.obj
 0001:00095e70       _c19_chartstep_c19_CusakisME4901arcs2 10096e70 f   c19_CusakisME4901arcs2.obj
 0001:00096e10       _c19_power                 10097e10 f   c19_CusakisME4901arcs2.obj
 0001:00096e60       _c19_eml_scalar_eg         10097e60 f   c19_CusakisME4901arcs2.obj
 0001:00096e70       _sf_opaque_get_sim_state_c19_CusakisME4901arcs2 10097e70 f   c19_CusakisME4901arcs2.obj
 0001:00096e90       _sf_opaque_set_sim_state_c19_CusakisME4901arcs2 10097e90 f   c19_CusakisME4901arcs2.obj
 0001:00096eb0       _sf_opaque_terminate_c19_CusakisME4901arcs2 10097eb0 f   c19_CusakisME4901arcs2.obj
 0001:00096f20       _finalize_c19_CusakisME4901arcs2 10097f20 f   c19_CusakisME4901arcs2.obj
 0001:00096f30       _sf_opaque_init_subchart_simstructs 10097f30 f   c19_CusakisME4901arcs2.obj
 0001:00096f50       _initSimStructsc19_CusakisME4901arcs2 10097f50 f   c19_CusakisME4901arcs2.obj
 0001:00096f60       _mdlRTW_c19_CusakisME4901arcs2 10097f60 f   c19_CusakisME4901arcs2.obj
 0001:000972a0       _c20_info_helper           100982a0 f   c20_CusakisME4901arcs2.obj
 0001:00098c50       _c20_b_info_helper         10099c50 f   c20_CusakisME4901arcs2.obj
 0001:0009a660       _c20_c_info_helper         1009b660 f   c20_CusakisME4901arcs2.obj
 0001:0009c070       _c20_d_info_helper         1009d070 f   c20_CusakisME4901arcs2.obj
 0001:0009da80       _c20_e_info_helper         1009ea80 f   c20_CusakisME4901arcs2.obj
 0001:0009f680       _get_sim_state_c20_CusakisME4901arcs2 100a0680 f   c20_CusakisME4901arcs2.obj
 0001:0009fa10       _sf_get_sim_state_info_c20_CusakisME4901arcs2 100a0a10 f   c20_CusakisME4901arcs2.obj
 0001:0009fbb0       _set_sim_state_c20_CusakisME4901arcs2 100a0bb0 f   c20_CusakisME4901arcs2.obj
 0001:0009fe00       _c20_update_debugger_state_c20_CusakisME4901arcs2 100a0e00 f   c20_CusakisME4901arcs2.obj
 0001:0009fe10       _c20_emlrt_marshallIn      100a0e10 f   c20_CusakisME4901arcs2.obj
 0001:0009fe60       _c20_b_emlrt_marshallIn    100a0e60 f   c20_CusakisME4901arcs2.obj
 0001:0009fee0       _c20_c_emlrt_marshallIn    100a0ee0 f   c20_CusakisME4901arcs2.obj
 0001:0009ff30       _c20_d_emlrt_marshallIn    100a0f30 f   c20_CusakisME4901arcs2.obj
 0001:0009ffd0       _c20_e_emlrt_marshallIn    100a0fd0 f   c20_CusakisME4901arcs2.obj
 0001:000a0020       _c20_f_emlrt_marshallIn    100a1020 f   c20_CusakisME4901arcs2.obj
 0001:000a00a0       _c20_m_emlrt_marshallIn    100a10a0 f   c20_CusakisME4901arcs2.obj
 0001:000a00f0       _c20_n_emlrt_marshallIn    100a10f0 f   c20_CusakisME4901arcs2.obj
 0001:000a01a0       _mdlProcessParameters_c20_CusakisME4901arcs2 100a11a0 f   c20_CusakisME4901arcs2.obj
 0001:000a0240       _initialize_params_c20_CusakisME4901arcs2 100a1240 f   c20_CusakisME4901arcs2.obj
 0001:000a0450       _mdlSetWorkWidths_c20_CusakisME4901arcs2 100a1450 f   c20_CusakisME4901arcs2.obj
 0001:000a0b50       _sf_get_instance_specialization 100a1b50 f   c20_CusakisME4901arcs2.obj
 0001:000a0b60       _mdlStart_c20_CusakisME4901arcs2 100a1b60 f   c20_CusakisME4901arcs2.obj
 0001:000a0cd0       _init_dsm_address_info     100a1cd0 f   c20_CusakisME4901arcs2.obj
 0001:000a0ce0       _chart_debug_initialization 100a1ce0 f   c20_CusakisME4901arcs2.obj
 0001:000a1b00       _init_script_number_translation 100a2b00 f   c20_CusakisME4901arcs2.obj
 0001:000a1b10       _c20_sf_marshallOut        100a2b10 f   c20_CusakisME4901arcs2.obj
 0001:000a1bf0       _c20_sf_marshallIn         100a2bf0 f   c20_CusakisME4901arcs2.obj
 0001:000a1ca0       _c20_b_sf_marshallOut      100a2ca0 f   c20_CusakisME4901arcs2.obj
 0001:000a1e50       _c20_b_sf_marshallIn       100a2e50 f   c20_CusakisME4901arcs2.obj
 0001:000a1f50       _c20_c_sf_marshallOut      100a2f50 f   c20_CusakisME4901arcs2.obj
 0001:000a2030       _c20_c_sf_marshallIn       100a3030 f   c20_CusakisME4901arcs2.obj
 0001:000a20e0       _c20_d_sf_marshallOut      100a30e0 f   c20_CusakisME4901arcs2.obj
 0001:000a2160       _c20_d_sf_marshallIn       100a3160 f   c20_CusakisME4901arcs2.obj
 0001:000a21e0       _c20_g_emlrt_marshallIn    100a31e0 f   c20_CusakisME4901arcs2.obj
 0001:000a2230       _c20_e_sf_marshallOut      100a3230 f   c20_CusakisME4901arcs2.obj
 0001:000a2340       _sf_opaque_initialize_c20_CusakisME4901arcs2 100a3340 f   c20_CusakisME4901arcs2.obj
 0001:000a2370       _initialize_c20_CusakisME4901arcs2 100a3370 f   c20_CusakisME4901arcs2.obj
 0001:000a23b0       _sf_opaque_enable_c20_CusakisME4901arcs2 100a33b0 f   c20_CusakisME4901arcs2.obj
 0001:000a23d0       _enable_c20_CusakisME4901arcs2 100a33d0 f   c20_CusakisME4901arcs2.obj
 0001:000a23f0       _sf_opaque_disable_c20_CusakisME4901arcs2 100a33f0 f   c20_CusakisME4901arcs2.obj
 0001:000a2410       _disable_c20_CusakisME4901arcs2 100a3410 f   c20_CusakisME4901arcs2.obj
 0001:000a2430       _sf_opaque_gateway_c20_CusakisME4901arcs2 100a3430 f   c20_CusakisME4901arcs2.obj
 0001:000a2450       _sf_c20_CusakisME4901arcs2 100a3450 f   c20_CusakisME4901arcs2.obj
 0001:000a29a0       _c20_chartstep_c20_CusakisME4901arcs2 100a39a0 f   c20_CusakisME4901arcs2.obj
 0001:000ac1a0       _c20_f_sf_marshallOut      100ad1a0 f   c20_CusakisME4901arcs2.obj
 0001:000ac350       _c20_e_sf_marshallIn       100ad350 f   c20_CusakisME4901arcs2.obj
 0001:000ac440       _c20_h_emlrt_marshallIn    100ad440 f   c20_CusakisME4901arcs2.obj
 0001:000ac4d0       _c20_g_sf_marshallOut      100ad4d0 f   c20_CusakisME4901arcs2.obj
 0001:000ac680       _c20_f_sf_marshallIn       100ad680 f   c20_CusakisME4901arcs2.obj
 0001:000ac780       _c20_i_emlrt_marshallIn    100ad780 f   c20_CusakisME4901arcs2.obj
 0001:000ac820       _c20_mpower                100ad820 f   c20_CusakisME4901arcs2.obj
 0001:000ac870       _c20_eml_scalar_eg         100ad870 f   c20_CusakisME4901arcs2.obj
 0001:000ac880       _c20_inv                   100ad880 f   c20_CusakisME4901arcs2.obj
 0001:000accc0       _c20_invNxN                100adcc0 f   c20_CusakisME4901arcs2.obj
 0001:000ad880       _c20_eps                   100ae880 f   c20_CusakisME4901arcs2.obj
 0001:000ad890       _c20_check_forloop_overflow_error 100ae890 f   c20_CusakisME4901arcs2.obj
 0001:000ad9c0       _c20_norm                  100ae9c0 f   c20_CusakisME4901arcs2.obj
 0001:000adbc0       _c20_eml_warning           100aebc0 f   c20_CusakisME4901arcs2.obj
 0001:000adc70       _c20_b_eml_warning         100aec70 f   c20_CusakisME4901arcs2.obj
 0001:000add90       _c20_c_eml_scalar_eg       100aed90 f   c20_CusakisME4901arcs2.obj
 0001:000adda0       _c20_e_eml_scalar_eg       100aeda0 f   c20_CusakisME4901arcs2.obj
 0001:000addb0       _c20_f_eml_scalar_eg       100aedb0 f   c20_CusakisME4901arcs2.obj
 0001:000addc0       _c20_pinv                  100aedc0 f   c20_CusakisME4901arcs2.obj
 0001:000ae690       _c20_eml_error             100af690 f   c20_CusakisME4901arcs2.obj
 0001:000ae740       _c20_eml_xgesvd            100af740 f   c20_CusakisME4901arcs2.obj
 0001:000b5b40       _c20_eml_div               100b6b40 f   c20_CusakisME4901arcs2.obj
 0001:000b5b50       _c20_realmin               100b6b50 f   c20_CusakisME4901arcs2.obj
 0001:000b5b60       _c20_abs                   100b6b60 f   c20_CusakisME4901arcs2.obj
 0001:000b5b90       _c20_d_eml_scalar_eg       100b6b90 f   c20_CusakisME4901arcs2.obj
 0001:000b5ba0       _c20_eml_xnrm2             100b6ba0 f   c20_CusakisME4901arcs2.obj
 0001:000b5e70       _c20_eml_xdotc             100b6e70 f   c20_CusakisME4901arcs2.obj
 0001:000b6070       _c20_b_eml_xnrm2           100b7070 f   c20_CusakisME4901arcs2.obj
 0001:000b6340       _c20_b_eml_xdotc           100b7340 f   c20_CusakisME4901arcs2.obj
 0001:000b6540       _c20_g_eml_scalar_eg       100b7540 f   c20_CusakisME4901arcs2.obj
 0001:000b6550       _c20_b_eml_error           100b7550 f   c20_CusakisME4901arcs2.obj
 0001:000b6600       _c20_h_eml_scalar_eg       100b7600 f   c20_CusakisME4901arcs2.obj
 0001:000b6610       _c20_svd                   100b7610 f   c20_CusakisME4901arcs2.obj
 0001:000b6810       _c20_eml_matlab_zsvdc      100b7810 f   c20_CusakisME4901arcs2.obj
 0001:000bbdc0       _c20_i_eml_scalar_eg       100bcdc0 f   c20_CusakisME4901arcs2.obj
 0001:000bbdd0       _c20_b_pinv                100bcdd0 f   c20_CusakisME4901arcs2.obj
 0001:000bc690       _c20_b_eml_xgesvd          100bd690 f   c20_CusakisME4901arcs2.obj
 0001:000c3b70       _c20_b_eml_scalar_eg       100c4b70 f   c20_CusakisME4901arcs2.obj
 0001:000c3b80       _c20_c_eml_xnrm2           100c4b80 f   c20_CusakisME4901arcs2.obj
 0001:000c3e50       _c20_c_eml_xdotc           100c4e50 f   c20_CusakisME4901arcs2.obj
 0001:000c4060       _c20_d_eml_xnrm2           100c5060 f   c20_CusakisME4901arcs2.obj
 0001:000c4330       _c20_j_eml_scalar_eg       100c5330 f   c20_CusakisME4901arcs2.obj
 0001:000c4340       _c20_j_emlrt_marshallIn    100c5340 f   c20_CusakisME4901arcs2.obj
 0001:000c4390       _c20_k_emlrt_marshallIn    100c5390 f   c20_CusakisME4901arcs2.obj
 0001:000c4410       _c20_b_eml_matlab_zgetrf   100c5410 f   c20_CusakisME4901arcs2.obj
 0001:000c5030       _c20_below_threshold       100c6030 f   c20_CusakisME4901arcs2.obj
 0001:000c5040       _c20_b_eml_xger            100c6040 f   c20_CusakisME4901arcs2.obj
 0001:000c54b0       _c20_b_eml_xtrsm           100c64b0 f   c20_CusakisME4901arcs2.obj
 0001:000c5b40       _c20_h_eml_xscal           100c6b40 f   c20_CusakisME4901arcs2.obj
 0001:000c5d20       _c20_h_eml_xaxpy           100c6d20 f   c20_CusakisME4901arcs2.obj
 0001:000c5ff0       _c20_i_eml_xscal           100c6ff0 f   c20_CusakisME4901arcs2.obj
 0001:000c61d0       _c20_i_eml_xaxpy           100c71d0 f   c20_CusakisME4901arcs2.obj
 0001:000c64b0       _c20_j_eml_xaxpy           100c74b0 f   c20_CusakisME4901arcs2.obj
 0001:000c6780       _c20_k_eml_xaxpy           100c7780 f   c20_CusakisME4901arcs2.obj
 0001:000c6a50       _c20_j_eml_xscal           100c7a50 f   c20_CusakisME4901arcs2.obj
 0001:000c6c00       _c20_k_eml_xscal           100c7c00 f   c20_CusakisME4901arcs2.obj
 0001:000c6db0       _c20_b_sqrt                100c7db0 f   c20_CusakisME4901arcs2.obj
 0001:000c6df0       _c20_c_eml_error           100c7df0 f   c20_CusakisME4901arcs2.obj
 0001:000c6f10       _c20_b_eml_xrotg           100c7f10 f   c20_CusakisME4901arcs2.obj
 0001:000c6fd0       _c20_d_eml_xrot            100c7fd0 f   c20_CusakisME4901arcs2.obj
 0001:000c73e0       _c20_e_eml_xrot            100c83e0 f   c20_CusakisME4901arcs2.obj
 0001:000c77f0       _c20_d_eml_xswap           100c87f0 f   c20_CusakisME4901arcs2.obj
 0001:000c7a50       _c20_e_eml_xswap           100c8a50 f   c20_CusakisME4901arcs2.obj
 0001:000c7cb0       _c20_c_eml_xgemm           100c8cb0 f   c20_CusakisME4901arcs2.obj
 0001:000c82e0       _c20_l_eml_xscal           100c92e0 f   c20_CusakisME4901arcs2.obj
 0001:000c84c0       _c20_l_eml_xaxpy           100c94c0 f   c20_CusakisME4901arcs2.obj
 0001:000c87a0       _c20_m_eml_xscal           100c97a0 f   c20_CusakisME4901arcs2.obj
 0001:000c8980       _c20_m_eml_xaxpy           100c9980 f   c20_CusakisME4901arcs2.obj
 0001:000c8c50       _c20_n_eml_xaxpy           100c9c50 f   c20_CusakisME4901arcs2.obj
 0001:000c8f30       _c20_n_eml_xscal           100c9f30 f   c20_CusakisME4901arcs2.obj
 0001:000c90e0       _c20_f_eml_xrot            100ca0e0 f   c20_CusakisME4901arcs2.obj
 0001:000c94f0       _c20_f_eml_xswap           100ca4f0 f   c20_CusakisME4901arcs2.obj
 0001:000c9770       _c20_d_eml_xgemm           100ca770 f   c20_CusakisME4901arcs2.obj
 0001:000c9d90       _sf_opaque_get_sim_state_c20_CusakisME4901arcs2 100cad90 f   c20_CusakisME4901arcs2.obj
 0001:000c9db0       _sf_opaque_set_sim_state_c20_CusakisME4901arcs2 100cadb0 f   c20_CusakisME4901arcs2.obj
 0001:000c9dd0       _sf_opaque_terminate_c20_CusakisME4901arcs2 100cadd0 f   c20_CusakisME4901arcs2.obj
 0001:000c9e40       _finalize_c20_CusakisME4901arcs2 100cae40 f   c20_CusakisME4901arcs2.obj
 0001:000c9e50       _sf_opaque_init_subchart_simstructs 100cae50 f   c20_CusakisME4901arcs2.obj
 0001:000c9e70       _initSimStructsc20_CusakisME4901arcs2 100cae70 f   c20_CusakisME4901arcs2.obj
 0001:000c9e80       _mdlRTW_c20_CusakisME4901arcs2 100cae80 f   c20_CusakisME4901arcs2.obj
 0001:000cae30       _get_sim_state_c21_CusakisME4901arcs2 100cbe30 f   c21_CusakisME4901arcs2.obj
 0001:000cafc0       _sf_get_sim_state_info_c21_CusakisME4901arcs2 100cbfc0 f   c21_CusakisME4901arcs2.obj
 0001:000cb160       _set_sim_state_c21_CusakisME4901arcs2 100cc160 f   c21_CusakisME4901arcs2.obj
 0001:000cb260       _c21_update_debugger_state_c21_CusakisME4901arcs2 100cc260 f   c21_CusakisME4901arcs2.obj
 0001:000cb270       _c21_emlrt_marshallIn      100cc270 f   c21_CusakisME4901arcs2.obj
 0001:000cb2c0       _c21_b_emlrt_marshallIn    100cc2c0 f   c21_CusakisME4901arcs2.obj
 0001:000cb310       _c21_d_emlrt_marshallIn    100cc310 f   c21_CusakisME4901arcs2.obj
 0001:000cb360       _c21_e_emlrt_marshallIn    100cc360 f   c21_CusakisME4901arcs2.obj
 0001:000cb410       _mdlProcessParameters_c21_CusakisME4901arcs2 100cc410 f   c21_CusakisME4901arcs2.obj
 0001:000cb4b0       _initialize_params_c21_CusakisME4901arcs2 100cc4b0 f   c21_CusakisME4901arcs2.obj
 0001:000cb4c0       _mdlSetWorkWidths_c21_CusakisME4901arcs2 100cc4c0 f   c21_CusakisME4901arcs2.obj
 0001:000cb930       _sf_get_instance_specialization 100cc930 f   c21_CusakisME4901arcs2.obj
 0001:000cb940       _mdlStart_c21_CusakisME4901arcs2 100cc940 f   c21_CusakisME4901arcs2.obj
 0001:000cbab0       _init_dsm_address_info     100ccab0 f   c21_CusakisME4901arcs2.obj
 0001:000cbac0       _chart_debug_initialization 100ccac0 f   c21_CusakisME4901arcs2.obj
 0001:000cc4d0       _init_script_number_translation 100cd4d0 f   c21_CusakisME4901arcs2.obj
 0001:000cc4e0       _c21_sf_marshallOut        100cd4e0 f   c21_CusakisME4901arcs2.obj
 0001:000cc560       _c21_sf_marshallIn         100cd560 f   c21_CusakisME4901arcs2.obj
 0001:000cc5e0       _sf_opaque_initialize_c21_CusakisME4901arcs2 100cd5e0 f   c21_CusakisME4901arcs2.obj
 0001:000cc610       _initialize_c21_CusakisME4901arcs2 100cd610 f   c21_CusakisME4901arcs2.obj
 0001:000cc650       _sf_opaque_enable_c21_CusakisME4901arcs2 100cd650 f   c21_CusakisME4901arcs2.obj
 0001:000cc670       _enable_c21_CusakisME4901arcs2 100cd670 f   c21_CusakisME4901arcs2.obj
 0001:000cc690       _sf_opaque_disable_c21_CusakisME4901arcs2 100cd690 f   c21_CusakisME4901arcs2.obj
 0001:000cc6b0       _disable_c21_CusakisME4901arcs2 100cd6b0 f   c21_CusakisME4901arcs2.obj
 0001:000cc6d0       _sf_opaque_gateway_c21_CusakisME4901arcs2 100cd6d0 f   c21_CusakisME4901arcs2.obj
 0001:000cc6f0       _sf_c21_CusakisME4901arcs2 100cd6f0 f   c21_CusakisME4901arcs2.obj
 0001:000cd0b0       _sf_opaque_get_sim_state_c21_CusakisME4901arcs2 100ce0b0 f   c21_CusakisME4901arcs2.obj
 0001:000cd0d0       _sf_opaque_set_sim_state_c21_CusakisME4901arcs2 100ce0d0 f   c21_CusakisME4901arcs2.obj
 0001:000cd0f0       _sf_opaque_terminate_c21_CusakisME4901arcs2 100ce0f0 f   c21_CusakisME4901arcs2.obj
 0001:000cd160       _finalize_c21_CusakisME4901arcs2 100ce160 f   c21_CusakisME4901arcs2.obj
 0001:000cd170       _sf_opaque_init_subchart_simstructs 100ce170 f   c21_CusakisME4901arcs2.obj
 0001:000cd190       _initSimStructsc21_CusakisME4901arcs2 100ce190 f   c21_CusakisME4901arcs2.obj
 0001:000cd1a0       _mdlRTW_c21_CusakisME4901arcs2 100ce1a0 f   c21_CusakisME4901arcs2.obj
 0001:000cdad0       _get_sim_state_c22_CusakisME4901arcs2 100cead0 f   c22_CusakisME4901arcs2.obj
 0001:000cdc20       _sf_get_sim_state_info_c22_CusakisME4901arcs2 100cec20 f   c22_CusakisME4901arcs2.obj
 0001:000cddc0       _set_sim_state_c22_CusakisME4901arcs2 100cedc0 f   c22_CusakisME4901arcs2.obj
 0001:000cdec0       _c22_update_debugger_state_c22_CusakisME4901arcs2 100ceec0 f   c22_CusakisME4901arcs2.obj
 0001:000cded0       _c22_emlrt_marshallIn      100ceed0 f   c22_CusakisME4901arcs2.obj
 0001:000cdf20       _c22_b_emlrt_marshallIn    100cef20 f   c22_CusakisME4901arcs2.obj
 0001:000cdfa0       _c22_e_emlrt_marshallIn    100cefa0 f   c22_CusakisME4901arcs2.obj
 0001:000cdff0       _c22_f_emlrt_marshallIn    100ceff0 f   c22_CusakisME4901arcs2.obj
 0001:000ce0a0       _mdlProcessParameters_c22_CusakisME4901arcs2 100cf0a0 f   c22_CusakisME4901arcs2.obj
 0001:000ce140       _initialize_params_c22_CusakisME4901arcs2 100cf140 f   c22_CusakisME4901arcs2.obj
 0001:000ce150       _mdlSetWorkWidths_c22_CusakisME4901arcs2 100cf150 f   c22_CusakisME4901arcs2.obj
 0001:000ce4e0       _sf_get_instance_specialization 100cf4e0 f   c22_CusakisME4901arcs2.obj
 0001:000ce4f0       _mdlStart_c22_CusakisME4901arcs2 100cf4f0 f   c22_CusakisME4901arcs2.obj
 0001:000ce660       _init_dsm_address_info     100cf660 f   c22_CusakisME4901arcs2.obj
 0001:000ce670       _chart_debug_initialization 100cf670 f   c22_CusakisME4901arcs2.obj
 0001:000ceb20       _init_script_number_translation 100cfb20 f   c22_CusakisME4901arcs2.obj
 0001:000ceb30       _c22_sf_marshallOut        100cfb30 f   c22_CusakisME4901arcs2.obj
 0001:000cec10       _c22_sf_marshallIn         100cfc10 f   c22_CusakisME4901arcs2.obj
 0001:000cecc0       _c22_b_sf_marshallOut      100cfcc0 f   c22_CusakisME4901arcs2.obj
 0001:000ced40       _sf_opaque_initialize_c22_CusakisME4901arcs2 100cfd40 f   c22_CusakisME4901arcs2.obj
 0001:000ced70       _initialize_c22_CusakisME4901arcs2 100cfd70 f   c22_CusakisME4901arcs2.obj
 0001:000cedb0       _sf_opaque_enable_c22_CusakisME4901arcs2 100cfdb0 f   c22_CusakisME4901arcs2.obj
 0001:000cedd0       _enable_c22_CusakisME4901arcs2 100cfdd0 f   c22_CusakisME4901arcs2.obj
 0001:000cedf0       _sf_opaque_disable_c22_CusakisME4901arcs2 100cfdf0 f   c22_CusakisME4901arcs2.obj
 0001:000cee10       _disable_c22_CusakisME4901arcs2 100cfe10 f   c22_CusakisME4901arcs2.obj
 0001:000cee30       _sf_opaque_gateway_c22_CusakisME4901arcs2 100cfe30 f   c22_CusakisME4901arcs2.obj
 0001:000cee50       _sf_c22_CusakisME4901arcs2 100cfe50 f   c22_CusakisME4901arcs2.obj
 0001:000cf4a0       _c22_b_sf_marshallIn       100d04a0 f   c22_CusakisME4901arcs2.obj
 0001:000cf520       _c22_c_emlrt_marshallIn    100d0520 f   c22_CusakisME4901arcs2.obj
 0001:000cf570       _sf_opaque_get_sim_state_c22_CusakisME4901arcs2 100d0570 f   c22_CusakisME4901arcs2.obj
 0001:000cf590       _sf_opaque_set_sim_state_c22_CusakisME4901arcs2 100d0590 f   c22_CusakisME4901arcs2.obj
 0001:000cf5b0       _sf_opaque_terminate_c22_CusakisME4901arcs2 100d05b0 f   c22_CusakisME4901arcs2.obj
 0001:000cf620       _finalize_c22_CusakisME4901arcs2 100d0620 f   c22_CusakisME4901arcs2.obj
 0001:000cf630       _sf_opaque_init_subchart_simstructs 100d0630 f   c22_CusakisME4901arcs2.obj
 0001:000cf650       _initSimStructsc22_CusakisME4901arcs2 100d0650 f   c22_CusakisME4901arcs2.obj
 0001:000cf660       _mdlRTW_c22_CusakisME4901arcs2 100d0660 f   c22_CusakisME4901arcs2.obj
 0001:000cff60       _get_sim_state_c23_CusakisME4901arcs2 100d0f60 f   c23_CusakisME4901arcs2.obj
 0001:000d0080       _sf_get_sim_state_info_c23_CusakisME4901arcs2 100d1080 f   c23_CusakisME4901arcs2.obj
 0001:000d0220       _set_sim_state_c23_CusakisME4901arcs2 100d1220 f   c23_CusakisME4901arcs2.obj
 0001:000d02e0       _c23_update_debugger_state_c23_CusakisME4901arcs2 100d12e0 f   c23_CusakisME4901arcs2.obj
 0001:000d02f0       _c23_emlrt_marshallIn      100d12f0 f   c23_CusakisME4901arcs2.obj
 0001:000d0340       _c23_b_emlrt_marshallIn    100d1340 f   c23_CusakisME4901arcs2.obj
 0001:000d0390       _c23_d_emlrt_marshallIn    100d1390 f   c23_CusakisME4901arcs2.obj
 0001:000d03e0       _c23_e_emlrt_marshallIn    100d13e0 f   c23_CusakisME4901arcs2.obj
 0001:000d0490       _mdlProcessParameters_c23_CusakisME4901arcs2 100d1490 f   c23_CusakisME4901arcs2.obj
 0001:000d0530       _initialize_params_c23_CusakisME4901arcs2 100d1530 f   c23_CusakisME4901arcs2.obj
 0001:000d0540       _mdlSetWorkWidths_c23_CusakisME4901arcs2 100d1540 f   c23_CusakisME4901arcs2.obj
 0001:000d08d0       _sf_get_instance_specialization 100d18d0 f   c23_CusakisME4901arcs2.obj
 0001:000d08e0       _mdlStart_c23_CusakisME4901arcs2 100d18e0 f   c23_CusakisME4901arcs2.obj
 0001:000d0a50       _init_dsm_address_info     100d1a50 f   c23_CusakisME4901arcs2.obj
 0001:000d0a60       _chart_debug_initialization 100d1a60 f   c23_CusakisME4901arcs2.obj
 0001:000d0f10       _init_script_number_translation 100d1f10 f   c23_CusakisME4901arcs2.obj
 0001:000d0f20       _c23_sf_marshallOut        100d1f20 f   c23_CusakisME4901arcs2.obj
 0001:000d0fa0       _c23_sf_marshallIn         100d1fa0 f   c23_CusakisME4901arcs2.obj
 0001:000d1020       _sf_opaque_initialize_c23_CusakisME4901arcs2 100d2020 f   c23_CusakisME4901arcs2.obj
 0001:000d1050       _initialize_c23_CusakisME4901arcs2 100d2050 f   c23_CusakisME4901arcs2.obj
 0001:000d1090       _sf_opaque_enable_c23_CusakisME4901arcs2 100d2090 f   c23_CusakisME4901arcs2.obj
 0001:000d10b0       _enable_c23_CusakisME4901arcs2 100d20b0 f   c23_CusakisME4901arcs2.obj
 0001:000d10d0       _sf_opaque_disable_c23_CusakisME4901arcs2 100d20d0 f   c23_CusakisME4901arcs2.obj
 0001:000d10f0       _disable_c23_CusakisME4901arcs2 100d20f0 f   c23_CusakisME4901arcs2.obj
 0001:000d1110       _sf_opaque_gateway_c23_CusakisME4901arcs2 100d2110 f   c23_CusakisME4901arcs2.obj
 0001:000d1130       _sf_c23_CusakisME4901arcs2 100d2130 f   c23_CusakisME4901arcs2.obj
 0001:000d1550       _sf_opaque_get_sim_state_c23_CusakisME4901arcs2 100d2550 f   c23_CusakisME4901arcs2.obj
 0001:000d1570       _sf_opaque_set_sim_state_c23_CusakisME4901arcs2 100d2570 f   c23_CusakisME4901arcs2.obj
 0001:000d1590       _sf_opaque_terminate_c23_CusakisME4901arcs2 100d2590 f   c23_CusakisME4901arcs2.obj
 0001:000d1600       _finalize_c23_CusakisME4901arcs2 100d2600 f   c23_CusakisME4901arcs2.obj
 0001:000d1610       _sf_opaque_init_subchart_simstructs 100d2610 f   c23_CusakisME4901arcs2.obj
 0001:000d1630       _initSimStructsc23_CusakisME4901arcs2 100d2630 f   c23_CusakisME4901arcs2.obj
 0001:000d1640       _mdlRTW_c23_CusakisME4901arcs2 100d2640 f   c23_CusakisME4901arcs2.obj
 0001:000d1c10       _get_sim_state_c24_CusakisME4901arcs2 100d2c10 f   c24_CusakisME4901arcs2.obj
 0001:000d1d30       _sf_get_sim_state_info_c24_CusakisME4901arcs2 100d2d30 f   c24_CusakisME4901arcs2.obj
 0001:000d1ed0       _set_sim_state_c24_CusakisME4901arcs2 100d2ed0 f   c24_CusakisME4901arcs2.obj
 0001:000d1f90       _c24_update_debugger_state_c24_CusakisME4901arcs2 100d2f90 f   c24_CusakisME4901arcs2.obj
 0001:000d1fa0       _c24_emlrt_marshallIn      100d2fa0 f   c24_CusakisME4901arcs2.obj
 0001:000d1ff0       _c24_b_emlrt_marshallIn    100d2ff0 f   c24_CusakisME4901arcs2.obj
 0001:000d2040       _c24_d_emlrt_marshallIn    100d3040 f   c24_CusakisME4901arcs2.obj
 0001:000d2090       _c24_e_emlrt_marshallIn    100d3090 f   c24_CusakisME4901arcs2.obj
 0001:000d2140       _mdlProcessParameters_c24_CusakisME4901arcs2 100d3140 f   c24_CusakisME4901arcs2.obj
 0001:000d21e0       _initialize_params_c24_CusakisME4901arcs2 100d31e0 f   c24_CusakisME4901arcs2.obj
 0001:000d21f0       _mdlSetWorkWidths_c24_CusakisME4901arcs2 100d31f0 f   c24_CusakisME4901arcs2.obj
 0001:000d25a0       _sf_get_instance_specialization 100d35a0 f   c24_CusakisME4901arcs2.obj
 0001:000d25b0       _mdlStart_c24_CusakisME4901arcs2 100d35b0 f   c24_CusakisME4901arcs2.obj
 0001:000d2720       _init_dsm_address_info     100d3720 f   c24_CusakisME4901arcs2.obj
 0001:000d2730       _chart_debug_initialization 100d3730 f   c24_CusakisME4901arcs2.obj
 0001:000d2d50       _init_script_number_translation 100d3d50 f   c24_CusakisME4901arcs2.obj
 0001:000d2d60       _c24_sf_marshallOut        100d3d60 f   c24_CusakisME4901arcs2.obj
 0001:000d2de0       _c24_sf_marshallIn         100d3de0 f   c24_CusakisME4901arcs2.obj
 0001:000d2e60       _c24_b_sf_marshallOut      100d3e60 f   c24_CusakisME4901arcs2.obj
 0001:000d2f40       _sf_opaque_initialize_c24_CusakisME4901arcs2 100d3f40 f   c24_CusakisME4901arcs2.obj
 0001:000d2f70       _initialize_c24_CusakisME4901arcs2 100d3f70 f   c24_CusakisME4901arcs2.obj
 0001:000d2fb0       _sf_opaque_enable_c24_CusakisME4901arcs2 100d3fb0 f   c24_CusakisME4901arcs2.obj
 0001:000d2fd0       _enable_c24_CusakisME4901arcs2 100d3fd0 f   c24_CusakisME4901arcs2.obj
 0001:000d2ff0       _sf_opaque_disable_c24_CusakisME4901arcs2 100d3ff0 f   c24_CusakisME4901arcs2.obj
 0001:000d3010       _disable_c24_CusakisME4901arcs2 100d4010 f   c24_CusakisME4901arcs2.obj
 0001:000d3030       _sf_opaque_gateway_c24_CusakisME4901arcs2 100d4030 f   c24_CusakisME4901arcs2.obj
 0001:000d3050       _sf_c24_CusakisME4901arcs2 100d4050 f   c24_CusakisME4901arcs2.obj
 0001:000d37f0       _sf_opaque_get_sim_state_c24_CusakisME4901arcs2 100d47f0 f   c24_CusakisME4901arcs2.obj
 0001:000d3810       _sf_opaque_set_sim_state_c24_CusakisME4901arcs2 100d4810 f   c24_CusakisME4901arcs2.obj
 0001:000d3830       _sf_opaque_terminate_c24_CusakisME4901arcs2 100d4830 f   c24_CusakisME4901arcs2.obj
 0001:000d38a0       _finalize_c24_CusakisME4901arcs2 100d48a0 f   c24_CusakisME4901arcs2.obj
 0001:000d38b0       _sf_opaque_init_subchart_simstructs 100d48b0 f   c24_CusakisME4901arcs2.obj
 0001:000d38d0       _initSimStructsc24_CusakisME4901arcs2 100d48d0 f   c24_CusakisME4901arcs2.obj
 0001:000d38e0       _mdlRTW_c24_CusakisME4901arcs2 100d48e0 f   c24_CusakisME4901arcs2.obj
 0001:000d4610       _get_sim_state_c25_CusakisME4901arcs2 100d5610 f   c25_CusakisME4901arcs2.obj
 0001:000d4760       _sf_get_sim_state_info_c25_CusakisME4901arcs2 100d5760 f   c25_CusakisME4901arcs2.obj
 0001:000d4900       _set_sim_state_c25_CusakisME4901arcs2 100d5900 f   c25_CusakisME4901arcs2.obj
 0001:000d4a00       _c25_update_debugger_state_c25_CusakisME4901arcs2 100d5a00 f   c25_CusakisME4901arcs2.obj
 0001:000d4a10       _c25_emlrt_marshallIn      100d5a10 f   c25_CusakisME4901arcs2.obj
 0001:000d4a60       _c25_b_emlrt_marshallIn    100d5a60 f   c25_CusakisME4901arcs2.obj
 0001:000d4ae0       _c25_e_emlrt_marshallIn    100d5ae0 f   c25_CusakisME4901arcs2.obj
 0001:000d4b30       _c25_f_emlrt_marshallIn    100d5b30 f   c25_CusakisME4901arcs2.obj
 0001:000d4be0       _mdlProcessParameters_c25_CusakisME4901arcs2 100d5be0 f   c25_CusakisME4901arcs2.obj
 0001:000d4c80       _initialize_params_c25_CusakisME4901arcs2 100d5c80 f   c25_CusakisME4901arcs2.obj
 0001:000d4d90       _mdlSetWorkWidths_c25_CusakisME4901arcs2 100d5d90 f   c25_CusakisME4901arcs2.obj
 0001:000d5290       _sf_get_instance_specialization 100d6290 f   c25_CusakisME4901arcs2.obj
 0001:000d52a0       _mdlStart_c25_CusakisME4901arcs2 100d62a0 f   c25_CusakisME4901arcs2.obj
 0001:000d5410       _init_dsm_address_info     100d6410 f   c25_CusakisME4901arcs2.obj
 0001:000d5420       _chart_debug_initialization 100d6420 f   c25_CusakisME4901arcs2.obj
 0001:000d5b10       _init_script_number_translation 100d6b10 f   c25_CusakisME4901arcs2.obj
 0001:000d5b20       _c25_sf_marshallOut        100d6b20 f   c25_CusakisME4901arcs2.obj
 0001:000d5c00       _c25_sf_marshallIn         100d6c00 f   c25_CusakisME4901arcs2.obj
 0001:000d5cb0       _c25_b_sf_marshallOut      100d6cb0 f   c25_CusakisME4901arcs2.obj
 0001:000d5d30       _c25_b_sf_marshallIn       100d6d30 f   c25_CusakisME4901arcs2.obj
 0001:000d5db0       _c25_c_emlrt_marshallIn    100d6db0 f   c25_CusakisME4901arcs2.obj
 0001:000d5e00       _c25_c_sf_marshallOut      100d6e00 f   c25_CusakisME4901arcs2.obj
 0001:000d5ee0       _sf_opaque_initialize_c25_CusakisME4901arcs2 100d6ee0 f   c25_CusakisME4901arcs2.obj
 0001:000d5f10       _initialize_c25_CusakisME4901arcs2 100d6f10 f   c25_CusakisME4901arcs2.obj
 0001:000d5f50       _sf_opaque_enable_c25_CusakisME4901arcs2 100d6f50 f   c25_CusakisME4901arcs2.obj
 0001:000d5f70       _enable_c25_CusakisME4901arcs2 100d6f70 f   c25_CusakisME4901arcs2.obj
 0001:000d5f90       _sf_opaque_disable_c25_CusakisME4901arcs2 100d6f90 f   c25_CusakisME4901arcs2.obj
 0001:000d5fb0       _disable_c25_CusakisME4901arcs2 100d6fb0 f   c25_CusakisME4901arcs2.obj
 0001:000d5fd0       _sf_opaque_gateway_c25_CusakisME4901arcs2 100d6fd0 f   c25_CusakisME4901arcs2.obj
 0001:000d5ff0       _sf_c25_CusakisME4901arcs2 100d6ff0 f   c25_CusakisME4901arcs2.obj
 0001:000d67e0       _sf_opaque_get_sim_state_c25_CusakisME4901arcs2 100d77e0 f   c25_CusakisME4901arcs2.obj
 0001:000d6800       _sf_opaque_set_sim_state_c25_CusakisME4901arcs2 100d7800 f   c25_CusakisME4901arcs2.obj
 0001:000d6820       _sf_opaque_terminate_c25_CusakisME4901arcs2 100d7820 f   c25_CusakisME4901arcs2.obj
 0001:000d6890       _finalize_c25_CusakisME4901arcs2 100d7890 f   c25_CusakisME4901arcs2.obj
 0001:000d68a0       _sf_opaque_init_subchart_simstructs 100d78a0 f   c25_CusakisME4901arcs2.obj
 0001:000d68c0       _initSimStructsc25_CusakisME4901arcs2 100d78c0 f   c25_CusakisME4901arcs2.obj
 0001:000d68d0       _mdlRTW_c25_CusakisME4901arcs2 100d78d0 f   c25_CusakisME4901arcs2.obj
 0001:000d6eb0       _get_sim_state_c26_CusakisME4901arcs2 100d7eb0 f   c26_CusakisME4901arcs2.obj
 0001:000d7000       _sf_get_sim_state_info_c26_CusakisME4901arcs2 100d8000 f   c26_CusakisME4901arcs2.obj
 0001:000d71a0       _set_sim_state_c26_CusakisME4901arcs2 100d81a0 f   c26_CusakisME4901arcs2.obj
 0001:000d72a0       _c26_update_debugger_state_c26_CusakisME4901arcs2 100d82a0 f   c26_CusakisME4901arcs2.obj
 0001:000d72b0       _c26_emlrt_marshallIn      100d82b0 f   c26_CusakisME4901arcs2.obj
 0001:000d7300       _c26_b_emlrt_marshallIn    100d8300 f   c26_CusakisME4901arcs2.obj
 0001:000d7380       _c26_e_emlrt_marshallIn    100d8380 f   c26_CusakisME4901arcs2.obj
 0001:000d73d0       _c26_f_emlrt_marshallIn    100d83d0 f   c26_CusakisME4901arcs2.obj
 0001:000d7480       _mdlProcessParameters_c26_CusakisME4901arcs2 100d8480 f   c26_CusakisME4901arcs2.obj
 0001:000d7520       _initialize_params_c26_CusakisME4901arcs2 100d8520 f   c26_CusakisME4901arcs2.obj
 0001:000d7530       _mdlSetWorkWidths_c26_CusakisME4901arcs2 100d8530 f   c26_CusakisME4901arcs2.obj
 0001:000d78e0       _sf_get_instance_specialization 100d88e0 f   c26_CusakisME4901arcs2.obj
 0001:000d78f0       _mdlStart_c26_CusakisME4901arcs2 100d88f0 f   c26_CusakisME4901arcs2.obj
 0001:000d7a60       _init_dsm_address_info     100d8a60 f   c26_CusakisME4901arcs2.obj
 0001:000d7a70       _chart_debug_initialization 100d8a70 f   c26_CusakisME4901arcs2.obj
 0001:000d8000       _init_script_number_translation 100d9000 f   c26_CusakisME4901arcs2.obj
 0001:000d8010       _c26_sf_marshallOut        100d9010 f   c26_CusakisME4901arcs2.obj
 0001:000d80f0       _c26_sf_marshallIn         100d90f0 f   c26_CusakisME4901arcs2.obj
 0001:000d81a0       _sf_opaque_initialize_c26_CusakisME4901arcs2 100d91a0 f   c26_CusakisME4901arcs2.obj
 0001:000d81d0       _initialize_c26_CusakisME4901arcs2 100d91d0 f   c26_CusakisME4901arcs2.obj
 0001:000d8210       _sf_opaque_enable_c26_CusakisME4901arcs2 100d9210 f   c26_CusakisME4901arcs2.obj
 0001:000d8230       _enable_c26_CusakisME4901arcs2 100d9230 f   c26_CusakisME4901arcs2.obj
 0001:000d8250       _sf_opaque_disable_c26_CusakisME4901arcs2 100d9250 f   c26_CusakisME4901arcs2.obj
 0001:000d8270       _disable_c26_CusakisME4901arcs2 100d9270 f   c26_CusakisME4901arcs2.obj
 0001:000d8290       _sf_opaque_gateway_c26_CusakisME4901arcs2 100d9290 f   c26_CusakisME4901arcs2.obj
 0001:000d82b0       _sf_c26_CusakisME4901arcs2 100d92b0 f   c26_CusakisME4901arcs2.obj
 0001:000d88a0       _c26_b_sf_marshallOut      100d98a0 f   c26_CusakisME4901arcs2.obj
 0001:000d8920       _c26_b_sf_marshallIn       100d9920 f   c26_CusakisME4901arcs2.obj
 0001:000d89a0       _c26_c_emlrt_marshallIn    100d99a0 f   c26_CusakisME4901arcs2.obj
 0001:000d89f0       _sf_opaque_get_sim_state_c26_CusakisME4901arcs2 100d99f0 f   c26_CusakisME4901arcs2.obj
 0001:000d8a10       _sf_opaque_set_sim_state_c26_CusakisME4901arcs2 100d9a10 f   c26_CusakisME4901arcs2.obj
 0001:000d8a30       _sf_opaque_terminate_c26_CusakisME4901arcs2 100d9a30 f   c26_CusakisME4901arcs2.obj
 0001:000d8aa0       _finalize_c26_CusakisME4901arcs2 100d9aa0 f   c26_CusakisME4901arcs2.obj
 0001:000d8ab0       _sf_opaque_init_subchart_simstructs 100d9ab0 f   c26_CusakisME4901arcs2.obj
 0001:000d8ad0       _initSimStructsc26_CusakisME4901arcs2 100d9ad0 f   c26_CusakisME4901arcs2.obj
 0001:000d8ae0       _mdlRTW_c26_CusakisME4901arcs2 100d9ae0 f   c26_CusakisME4901arcs2.obj
 0001:000d94b0       _get_sim_state_c27_CusakisME4901arcs2 100da4b0 f   c27_CusakisME4901arcs2.obj
 0001:000d95d0       _sf_get_sim_state_info_c27_CusakisME4901arcs2 100da5d0 f   c27_CusakisME4901arcs2.obj
 0001:000d9770       _set_sim_state_c27_CusakisME4901arcs2 100da770 f   c27_CusakisME4901arcs2.obj
 0001:000d9830       _c27_update_debugger_state_c27_CusakisME4901arcs2 100da830 f   c27_CusakisME4901arcs2.obj
 0001:000d9840       _c27_emlrt_marshallIn      100da840 f   c27_CusakisME4901arcs2.obj
 0001:000d9890       _c27_b_emlrt_marshallIn    100da890 f   c27_CusakisME4901arcs2.obj
 0001:000d98e0       _c27_d_emlrt_marshallIn    100da8e0 f   c27_CusakisME4901arcs2.obj
 0001:000d9930       _c27_e_emlrt_marshallIn    100da930 f   c27_CusakisME4901arcs2.obj
 0001:000d99e0       _mdlProcessParameters_c27_CusakisME4901arcs2 100da9e0 f   c27_CusakisME4901arcs2.obj
 0001:000d9a80       _initialize_params_c27_CusakisME4901arcs2 100daa80 f   c27_CusakisME4901arcs2.obj
 0001:000d9a90       _mdlSetWorkWidths_c27_CusakisME4901arcs2 100daa90 f   c27_CusakisME4901arcs2.obj
 0001:000d9e20       _sf_get_instance_specialization 100dae20 f   c27_CusakisME4901arcs2.obj
 0001:000d9e30       _mdlStart_c27_CusakisME4901arcs2 100dae30 f   c27_CusakisME4901arcs2.obj
 0001:000d9fa0       _init_dsm_address_info     100dafa0 f   c27_CusakisME4901arcs2.obj
 0001:000d9fb0       _chart_debug_initialization 100dafb0 f   c27_CusakisME4901arcs2.obj
 0001:000da460       _init_script_number_translation 100db460 f   c27_CusakisME4901arcs2.obj
 0001:000da470       _c27_sf_marshallOut        100db470 f   c27_CusakisME4901arcs2.obj
 0001:000da4f0       _c27_sf_marshallIn         100db4f0 f   c27_CusakisME4901arcs2.obj
 0001:000da570       _sf_opaque_initialize_c27_CusakisME4901arcs2 100db570 f   c27_CusakisME4901arcs2.obj
 0001:000da5a0       _initialize_c27_CusakisME4901arcs2 100db5a0 f   c27_CusakisME4901arcs2.obj
 0001:000da5e0       _sf_opaque_enable_c27_CusakisME4901arcs2 100db5e0 f   c27_CusakisME4901arcs2.obj
 0001:000da600       _enable_c27_CusakisME4901arcs2 100db600 f   c27_CusakisME4901arcs2.obj
 0001:000da620       _sf_opaque_disable_c27_CusakisME4901arcs2 100db620 f   c27_CusakisME4901arcs2.obj
 0001:000da640       _disable_c27_CusakisME4901arcs2 100db640 f   c27_CusakisME4901arcs2.obj
 0001:000da660       _sf_opaque_gateway_c27_CusakisME4901arcs2 100db660 f   c27_CusakisME4901arcs2.obj
 0001:000da680       _sf_c27_CusakisME4901arcs2 100db680 f   c27_CusakisME4901arcs2.obj
 0001:000daaa0       _sf_opaque_get_sim_state_c27_CusakisME4901arcs2 100dbaa0 f   c27_CusakisME4901arcs2.obj
 0001:000daac0       _sf_opaque_set_sim_state_c27_CusakisME4901arcs2 100dbac0 f   c27_CusakisME4901arcs2.obj
 0001:000daae0       _sf_opaque_terminate_c27_CusakisME4901arcs2 100dbae0 f   c27_CusakisME4901arcs2.obj
 0001:000dab50       _finalize_c27_CusakisME4901arcs2 100dbb50 f   c27_CusakisME4901arcs2.obj
 0001:000dab60       _sf_opaque_init_subchart_simstructs 100dbb60 f   c27_CusakisME4901arcs2.obj
 0001:000dab80       _initSimStructsc27_CusakisME4901arcs2 100dbb80 f   c27_CusakisME4901arcs2.obj
 0001:000dab90       _mdlRTW_c27_CusakisME4901arcs2 100dbb90 f   c27_CusakisME4901arcs2.obj
 0001:000db590       _get_sim_state_c28_CusakisME4901arcs2 100dc590 f   c28_CusakisME4901arcs2.obj
 0001:000db6b0       _sf_get_sim_state_info_c28_CusakisME4901arcs2 100dc6b0 f   c28_CusakisME4901arcs2.obj
 0001:000db850       _set_sim_state_c28_CusakisME4901arcs2 100dc850 f   c28_CusakisME4901arcs2.obj
 0001:000db910       _c28_update_debugger_state_c28_CusakisME4901arcs2 100dc910 f   c28_CusakisME4901arcs2.obj
 0001:000db920       _c28_emlrt_marshallIn      100dc920 f   c28_CusakisME4901arcs2.obj
 0001:000db970       _c28_b_emlrt_marshallIn    100dc970 f   c28_CusakisME4901arcs2.obj
 0001:000db9c0       _c28_d_emlrt_marshallIn    100dc9c0 f   c28_CusakisME4901arcs2.obj
 0001:000dba10       _c28_e_emlrt_marshallIn    100dca10 f   c28_CusakisME4901arcs2.obj
 0001:000dbac0       _mdlProcessParameters_c28_CusakisME4901arcs2 100dcac0 f   c28_CusakisME4901arcs2.obj
 0001:000dbb60       _initialize_params_c28_CusakisME4901arcs2 100dcb60 f   c28_CusakisME4901arcs2.obj
 0001:000dbb70       _mdlSetWorkWidths_c28_CusakisME4901arcs2 100dcb70 f   c28_CusakisME4901arcs2.obj
 0001:000dbf00       _sf_get_instance_specialization 100dcf00 f   c28_CusakisME4901arcs2.obj
 0001:000dbf10       _mdlStart_c28_CusakisME4901arcs2 100dcf10 f   c28_CusakisME4901arcs2.obj
 0001:000dc080       _init_dsm_address_info     100dd080 f   c28_CusakisME4901arcs2.obj
 0001:000dc090       _chart_debug_initialization 100dd090 f   c28_CusakisME4901arcs2.obj
 0001:000dc540       _init_script_number_translation 100dd540 f   c28_CusakisME4901arcs2.obj
 0001:000dc550       _c28_sf_marshallOut        100dd550 f   c28_CusakisME4901arcs2.obj
 0001:000dc5d0       _c28_sf_marshallIn         100dd5d0 f   c28_CusakisME4901arcs2.obj
 0001:000dc650       _sf_opaque_initialize_c28_CusakisME4901arcs2 100dd650 f   c28_CusakisME4901arcs2.obj
 0001:000dc680       _initialize_c28_CusakisME4901arcs2 100dd680 f   c28_CusakisME4901arcs2.obj
 0001:000dc6c0       _sf_opaque_enable_c28_CusakisME4901arcs2 100dd6c0 f   c28_CusakisME4901arcs2.obj
 0001:000dc6e0       _enable_c28_CusakisME4901arcs2 100dd6e0 f   c28_CusakisME4901arcs2.obj
 0001:000dc700       _sf_opaque_disable_c28_CusakisME4901arcs2 100dd700 f   c28_CusakisME4901arcs2.obj
 0001:000dc720       _disable_c28_CusakisME4901arcs2 100dd720 f   c28_CusakisME4901arcs2.obj
 0001:000dc740       _sf_opaque_gateway_c28_CusakisME4901arcs2 100dd740 f   c28_CusakisME4901arcs2.obj
 0001:000dc760       _sf_c28_CusakisME4901arcs2 100dd760 f   c28_CusakisME4901arcs2.obj
 0001:000dcb80       _sf_opaque_get_sim_state_c28_CusakisME4901arcs2 100ddb80 f   c28_CusakisME4901arcs2.obj
 0001:000dcba0       _sf_opaque_set_sim_state_c28_CusakisME4901arcs2 100ddba0 f   c28_CusakisME4901arcs2.obj
 0001:000dcbc0       _sf_opaque_terminate_c28_CusakisME4901arcs2 100ddbc0 f   c28_CusakisME4901arcs2.obj
 0001:000dcc30       _finalize_c28_CusakisME4901arcs2 100ddc30 f   c28_CusakisME4901arcs2.obj
 0001:000dcc40       _sf_opaque_init_subchart_simstructs 100ddc40 f   c28_CusakisME4901arcs2.obj
 0001:000dcc60       _initSimStructsc28_CusakisME4901arcs2 100ddc60 f   c28_CusakisME4901arcs2.obj
 0001:000dcc70       _mdlRTW_c28_CusakisME4901arcs2 100ddc70 f   c28_CusakisME4901arcs2.obj
 0001:000dd640       _get_sim_state_c29_CusakisME4901arcs2 100de640 f   c29_CusakisME4901arcs2.obj
 0001:000dd760       _sf_get_sim_state_info_c29_CusakisME4901arcs2 100de760 f   c29_CusakisME4901arcs2.obj
 0001:000dd900       _set_sim_state_c29_CusakisME4901arcs2 100de900 f   c29_CusakisME4901arcs2.obj
 0001:000dd9c0       _c29_update_debugger_state_c29_CusakisME4901arcs2 100de9c0 f   c29_CusakisME4901arcs2.obj
 0001:000dd9d0       _c29_emlrt_marshallIn      100de9d0 f   c29_CusakisME4901arcs2.obj
 0001:000dda20       _c29_b_emlrt_marshallIn    100dea20 f   c29_CusakisME4901arcs2.obj
 0001:000dda70       _c29_d_emlrt_marshallIn    100dea70 f   c29_CusakisME4901arcs2.obj
 0001:000ddac0       _c29_e_emlrt_marshallIn    100deac0 f   c29_CusakisME4901arcs2.obj
 0001:000ddb70       _mdlProcessParameters_c29_CusakisME4901arcs2 100deb70 f   c29_CusakisME4901arcs2.obj
 0001:000ddc10       _initialize_params_c29_CusakisME4901arcs2 100dec10 f   c29_CusakisME4901arcs2.obj
 0001:000ddc20       _mdlSetWorkWidths_c29_CusakisME4901arcs2 100dec20 f   c29_CusakisME4901arcs2.obj
 0001:000ddfb0       _sf_get_instance_specialization 100defb0 f   c29_CusakisME4901arcs2.obj
 0001:000ddfc0       _mdlStart_c29_CusakisME4901arcs2 100defc0 f   c29_CusakisME4901arcs2.obj
 0001:000de130       _init_dsm_address_info     100df130 f   c29_CusakisME4901arcs2.obj
 0001:000de140       _chart_debug_initialization 100df140 f   c29_CusakisME4901arcs2.obj
 0001:000de5f0       _init_script_number_translation 100df5f0 f   c29_CusakisME4901arcs2.obj
 0001:000de600       _c29_sf_marshallOut        100df600 f   c29_CusakisME4901arcs2.obj
 0001:000de680       _c29_sf_marshallIn         100df680 f   c29_CusakisME4901arcs2.obj
 0001:000de700       _sf_opaque_initialize_c29_CusakisME4901arcs2 100df700 f   c29_CusakisME4901arcs2.obj
 0001:000de730       _initialize_c29_CusakisME4901arcs2 100df730 f   c29_CusakisME4901arcs2.obj
 0001:000de770       _sf_opaque_enable_c29_CusakisME4901arcs2 100df770 f   c29_CusakisME4901arcs2.obj
 0001:000de790       _enable_c29_CusakisME4901arcs2 100df790 f   c29_CusakisME4901arcs2.obj
 0001:000de7b0       _sf_opaque_disable_c29_CusakisME4901arcs2 100df7b0 f   c29_CusakisME4901arcs2.obj
 0001:000de7d0       _disable_c29_CusakisME4901arcs2 100df7d0 f   c29_CusakisME4901arcs2.obj
 0001:000de7f0       _sf_opaque_gateway_c29_CusakisME4901arcs2 100df7f0 f   c29_CusakisME4901arcs2.obj
 0001:000de810       _sf_c29_CusakisME4901arcs2 100df810 f   c29_CusakisME4901arcs2.obj
 0001:000dec30       _sf_opaque_get_sim_state_c29_CusakisME4901arcs2 100dfc30 f   c29_CusakisME4901arcs2.obj
 0001:000dec50       _sf_opaque_set_sim_state_c29_CusakisME4901arcs2 100dfc50 f   c29_CusakisME4901arcs2.obj
 0001:000dec70       _sf_opaque_terminate_c29_CusakisME4901arcs2 100dfc70 f   c29_CusakisME4901arcs2.obj
 0001:000dece0       _finalize_c29_CusakisME4901arcs2 100dfce0 f   c29_CusakisME4901arcs2.obj
 0001:000decf0       _sf_opaque_init_subchart_simstructs 100dfcf0 f   c29_CusakisME4901arcs2.obj
 0001:000ded10       _initSimStructsc29_CusakisME4901arcs2 100dfd10 f   c29_CusakisME4901arcs2.obj
 0001:000ded20       _mdlRTW_c29_CusakisME4901arcs2 100dfd20 f   c29_CusakisME4901arcs2.obj
 0001:000df710       _get_sim_state_c30_CusakisME4901arcs2 100e0710 f   c30_CusakisME4901arcs2.obj
 0001:000df830       _sf_get_sim_state_info_c30_CusakisME4901arcs2 100e0830 f   c30_CusakisME4901arcs2.obj
 0001:000df9d0       _set_sim_state_c30_CusakisME4901arcs2 100e09d0 f   c30_CusakisME4901arcs2.obj
 0001:000dfa90       _c30_update_debugger_state_c30_CusakisME4901arcs2 100e0a90 f   c30_CusakisME4901arcs2.obj
 0001:000dfaa0       _c30_emlrt_marshallIn      100e0aa0 f   c30_CusakisME4901arcs2.obj
 0001:000dfaf0       _c30_b_emlrt_marshallIn    100e0af0 f   c30_CusakisME4901arcs2.obj
 0001:000dfb40       _c30_d_emlrt_marshallIn    100e0b40 f   c30_CusakisME4901arcs2.obj
 0001:000dfb90       _c30_e_emlrt_marshallIn    100e0b90 f   c30_CusakisME4901arcs2.obj
 0001:000dfc40       _mdlProcessParameters_c30_CusakisME4901arcs2 100e0c40 f   c30_CusakisME4901arcs2.obj
 0001:000dfce0       _initialize_params_c30_CusakisME4901arcs2 100e0ce0 f   c30_CusakisME4901arcs2.obj
 0001:000dfcf0       _mdlSetWorkWidths_c30_CusakisME4901arcs2 100e0cf0 f   c30_CusakisME4901arcs2.obj
 0001:000e0080       _sf_get_instance_specialization 100e1080 f   c30_CusakisME4901arcs2.obj
 0001:000e0090       _mdlStart_c30_CusakisME4901arcs2 100e1090 f   c30_CusakisME4901arcs2.obj
 0001:000e0200       _init_dsm_address_info     100e1200 f   c30_CusakisME4901arcs2.obj
 0001:000e0210       _chart_debug_initialization 100e1210 f   c30_CusakisME4901arcs2.obj
 0001:000e06c0       _init_script_number_translation 100e16c0 f   c30_CusakisME4901arcs2.obj
 0001:000e06d0       _c30_sf_marshallOut        100e16d0 f   c30_CusakisME4901arcs2.obj
 0001:000e0750       _c30_sf_marshallIn         100e1750 f   c30_CusakisME4901arcs2.obj
 0001:000e07d0       _sf_opaque_initialize_c30_CusakisME4901arcs2 100e17d0 f   c30_CusakisME4901arcs2.obj
 0001:000e0800       _initialize_c30_CusakisME4901arcs2 100e1800 f   c30_CusakisME4901arcs2.obj
 0001:000e0840       _sf_opaque_enable_c30_CusakisME4901arcs2 100e1840 f   c30_CusakisME4901arcs2.obj
 0001:000e0860       _enable_c30_CusakisME4901arcs2 100e1860 f   c30_CusakisME4901arcs2.obj
 0001:000e0880       _sf_opaque_disable_c30_CusakisME4901arcs2 100e1880 f   c30_CusakisME4901arcs2.obj
 0001:000e08a0       _disable_c30_CusakisME4901arcs2 100e18a0 f   c30_CusakisME4901arcs2.obj
 0001:000e08c0       _sf_opaque_gateway_c30_CusakisME4901arcs2 100e18c0 f   c30_CusakisME4901arcs2.obj
 0001:000e08e0       _sf_c30_CusakisME4901arcs2 100e18e0 f   c30_CusakisME4901arcs2.obj
 0001:000e0d00       _sf_opaque_get_sim_state_c30_CusakisME4901arcs2 100e1d00 f   c30_CusakisME4901arcs2.obj
 0001:000e0d20       _sf_opaque_set_sim_state_c30_CusakisME4901arcs2 100e1d20 f   c30_CusakisME4901arcs2.obj
 0001:000e0d40       _sf_opaque_terminate_c30_CusakisME4901arcs2 100e1d40 f   c30_CusakisME4901arcs2.obj
 0001:000e0db0       _finalize_c30_CusakisME4901arcs2 100e1db0 f   c30_CusakisME4901arcs2.obj
 0001:000e0dc0       _sf_opaque_init_subchart_simstructs 100e1dc0 f   c30_CusakisME4901arcs2.obj
 0001:000e0de0       _initSimStructsc30_CusakisME4901arcs2 100e1de0 f   c30_CusakisME4901arcs2.obj
 0001:000e0df0       _mdlRTW_c30_CusakisME4901arcs2 100e1df0 f   c30_CusakisME4901arcs2.obj
 0001:000e29f0       _get_sim_state_c31_CusakisME4901arcs2 100e39f0 f   c31_CusakisME4901arcs2.obj
 0001:000e3000       _sf_get_sim_state_info_c31_CusakisME4901arcs2 100e4000 f   c31_CusakisME4901arcs2.obj
 0001:000e31a0       _set_sim_state_c31_CusakisME4901arcs2 100e41a0 f   c31_CusakisME4901arcs2.obj
 0001:000e3530       _c31_update_debugger_state_c31_CusakisME4901arcs2 100e4530 f   c31_CusakisME4901arcs2.obj
 0001:000e3540       _c31_emlrt_marshallIn      100e4540 f   c31_CusakisME4901arcs2.obj
 0001:000e3590       _c31_b_emlrt_marshallIn    100e4590 f   c31_CusakisME4901arcs2.obj
 0001:000e3640       _mdlProcessParameters_c31_CusakisME4901arcs2 100e4640 f   c31_CusakisME4901arcs2.obj
 0001:000e36e0       _initialize_params_c31_CusakisME4901arcs2 100e46e0 f   c31_CusakisME4901arcs2.obj
 0001:000e36f0       _mdlSetWorkWidths_c31_CusakisME4901arcs2 100e46f0 f   c31_CusakisME4901arcs2.obj
 0001:000e3b30       _sf_get_instance_specialization 100e4b30 f   c31_CusakisME4901arcs2.obj
 0001:000e3b40       _mdlStart_c31_CusakisME4901arcs2 100e4b40 f   c31_CusakisME4901arcs2.obj
 0001:000e3cb0       _init_dsm_address_info     100e4cb0 f   c31_CusakisME4901arcs2.obj
 0001:000e3cc0       _chart_debug_initialization 100e4cc0 f   c31_CusakisME4901arcs2.obj
 0001:000e4f00       _init_script_number_translation 100e5f00 f   c31_CusakisME4901arcs2.obj
 0001:000e4f10       _c31_sf_marshallOut        100e5f10 f   c31_CusakisME4901arcs2.obj
 0001:000e4f90       _c31_sf_marshallIn         100e5f90 f   c31_CusakisME4901arcs2.obj
 0001:000e5010       _c31_b_sf_marshallOut      100e6010 f   c31_CusakisME4901arcs2.obj
 0001:000e5090       _sf_opaque_initialize_c31_CusakisME4901arcs2 100e6090 f   c31_CusakisME4901arcs2.obj
 0001:000e50c0       _initialize_c31_CusakisME4901arcs2 100e60c0 f   c31_CusakisME4901arcs2.obj
 0001:000e5100       _sf_opaque_enable_c31_CusakisME4901arcs2 100e6100 f   c31_CusakisME4901arcs2.obj
 0001:000e5120       _enable_c31_CusakisME4901arcs2 100e6120 f   c31_CusakisME4901arcs2.obj
 0001:000e5140       _sf_opaque_disable_c31_CusakisME4901arcs2 100e6140 f   c31_CusakisME4901arcs2.obj
 0001:000e5160       _disable_c31_CusakisME4901arcs2 100e6160 f   c31_CusakisME4901arcs2.obj
 0001:000e5180       _sf_opaque_gateway_c31_CusakisME4901arcs2 100e6180 f   c31_CusakisME4901arcs2.obj
 0001:000e51a0       _sf_c31_CusakisME4901arcs2 100e61a0 f   c31_CusakisME4901arcs2.obj
 0001:000e6b40       _c31_b_sf_marshallIn       100e7b40 f   c31_CusakisME4901arcs2.obj
 0001:000e6bc0       _c31_c_emlrt_marshallIn    100e7bc0 f   c31_CusakisME4901arcs2.obj
 0001:000e6c10       _c31_c_sf_marshallOut      100e7c10 f   c31_CusakisME4901arcs2.obj
 0001:000e6cd0       _c31_c_sf_marshallIn       100e7cd0 f   c31_CusakisME4901arcs2.obj
 0001:000e6d70       _c31_d_emlrt_marshallIn    100e7d70 f   c31_CusakisME4901arcs2.obj
 0001:000e6de0       _c31_typecast              100e7de0 f   c31_CusakisME4901arcs2.obj
 0001:000e6e00       _sf_opaque_get_sim_state_c31_CusakisME4901arcs2 100e7e00 f   c31_CusakisME4901arcs2.obj
 0001:000e6e20       _sf_opaque_set_sim_state_c31_CusakisME4901arcs2 100e7e20 f   c31_CusakisME4901arcs2.obj
 0001:000e6e40       _sf_opaque_terminate_c31_CusakisME4901arcs2 100e7e40 f   c31_CusakisME4901arcs2.obj
 0001:000e6eb0       _finalize_c31_CusakisME4901arcs2 100e7eb0 f   c31_CusakisME4901arcs2.obj
 0001:000e6ec0       _sf_opaque_init_subchart_simstructs 100e7ec0 f   c31_CusakisME4901arcs2.obj
 0001:000e6ee0       _initSimStructsc31_CusakisME4901arcs2 100e7ee0 f   c31_CusakisME4901arcs2.obj
 0001:000e6ef0       _mdlRTW_c31_CusakisME4901arcs2 100e7ef0 f   c31_CusakisME4901arcs2.obj
 0001:000e7250       _c32_info_helper           100e8250 f   c32_CusakisME4901arcs2.obj
 0001:000e7e90       _get_sim_state_c32_CusakisME4901arcs2 100e8e90 f   c32_CusakisME4901arcs2.obj
 0001:000e7fb0       _sf_get_sim_state_info_c32_CusakisME4901arcs2 100e8fb0 f   c32_CusakisME4901arcs2.obj
 0001:000e8150       _set_sim_state_c32_CusakisME4901arcs2 100e9150 f   c32_CusakisME4901arcs2.obj
 0001:000e8210       _c32_update_debugger_state_c32_CusakisME4901arcs2 100e9210 f   c32_CusakisME4901arcs2.obj
 0001:000e8220       _c32_emlrt_marshallIn      100e9220 f   c32_CusakisME4901arcs2.obj
 0001:000e8270       _c32_b_emlrt_marshallIn    100e9270 f   c32_CusakisME4901arcs2.obj
 0001:000e8320       _mdlProcessParameters_c32_CusakisME4901arcs2 100e9320 f   c32_CusakisME4901arcs2.obj
 0001:000e83c0       _initialize_params_c32_CusakisME4901arcs2 100e93c0 f   c32_CusakisME4901arcs2.obj
 0001:000e83d0       _mdlSetWorkWidths_c32_CusakisME4901arcs2 100e93d0 f   c32_CusakisME4901arcs2.obj
 0001:000e8760       _sf_get_instance_specialization 100e9760 f   c32_CusakisME4901arcs2.obj
 0001:000e8770       _mdlStart_c32_CusakisME4901arcs2 100e9770 f   c32_CusakisME4901arcs2.obj
 0001:000e88e0       _init_dsm_address_info     100e98e0 f   c32_CusakisME4901arcs2.obj
 0001:000e88f0       _chart_debug_initialization 100e98f0 f   c32_CusakisME4901arcs2.obj
 0001:000e8de0       _init_script_number_translation 100e9de0 f   c32_CusakisME4901arcs2.obj
 0001:000e8df0       _c32_sf_marshallOut        100e9df0 f   c32_CusakisME4901arcs2.obj
 0001:000e8e70       _c32_sf_marshallIn         100e9e70 f   c32_CusakisME4901arcs2.obj
 0001:000e8ef0       _c32_b_sf_marshallOut      100e9ef0 f   c32_CusakisME4901arcs2.obj
 0001:000e8fd0       _sf_opaque_initialize_c32_CusakisME4901arcs2 100e9fd0 f   c32_CusakisME4901arcs2.obj
 0001:000e9000       _initialize_c32_CusakisME4901arcs2 100ea000 f   c32_CusakisME4901arcs2.obj
 0001:000e9040       _sf_opaque_enable_c32_CusakisME4901arcs2 100ea040 f   c32_CusakisME4901arcs2.obj
 0001:000e9060       _enable_c32_CusakisME4901arcs2 100ea060 f   c32_CusakisME4901arcs2.obj
 0001:000e9080       _sf_opaque_disable_c32_CusakisME4901arcs2 100ea080 f   c32_CusakisME4901arcs2.obj
 0001:000e90a0       _disable_c32_CusakisME4901arcs2 100ea0a0 f   c32_CusakisME4901arcs2.obj
 0001:000e90c0       _sf_opaque_gateway_c32_CusakisME4901arcs2 100ea0c0 f   c32_CusakisME4901arcs2.obj
 0001:000e90e0       _sf_c32_CusakisME4901arcs2 100ea0e0 f   c32_CusakisME4901arcs2.obj
 0001:000e9250       _c32_chartstep_c32_CusakisME4901arcs2 100ea250 f   c32_CusakisME4901arcs2.obj
 0001:000e9930       _c32_c_sf_marshallOut      100ea930 f   c32_CusakisME4901arcs2.obj
 0001:000e99b0       _c32_b_sf_marshallIn       100ea9b0 f   c32_CusakisME4901arcs2.obj
 0001:000e9a30       _c32_c_emlrt_marshallIn    100eaa30 f   c32_CusakisME4901arcs2.obj
 0001:000e9a80       _c32_d_sf_marshallOut      100eaa80 f   c32_CusakisME4901arcs2.obj
 0001:000e9b60       _c32_c_sf_marshallIn       100eab60 f   c32_CusakisME4901arcs2.obj
 0001:000e9c10       _c32_d_emlrt_marshallIn    100eac10 f   c32_CusakisME4901arcs2.obj
 0001:000e9ca0       _c32_eml_scalar_eg         100eaca0 f   c32_CusakisME4901arcs2.obj
 0001:000e9cb0       _sf_opaque_get_sim_state_c32_CusakisME4901arcs2 100eacb0 f   c32_CusakisME4901arcs2.obj
 0001:000e9cd0       _sf_opaque_set_sim_state_c32_CusakisME4901arcs2 100eacd0 f   c32_CusakisME4901arcs2.obj
 0001:000e9cf0       _sf_opaque_terminate_c32_CusakisME4901arcs2 100eacf0 f   c32_CusakisME4901arcs2.obj
 0001:000e9d60       _finalize_c32_CusakisME4901arcs2 100ead60 f   c32_CusakisME4901arcs2.obj
 0001:000e9d70       _sf_opaque_init_subchart_simstructs 100ead70 f   c32_CusakisME4901arcs2.obj
 0001:000e9d90       _initSimStructsc32_CusakisME4901arcs2 100ead90 f   c32_CusakisME4901arcs2.obj
 0001:000e9da0       _mdlRTW_c32_CusakisME4901arcs2 100eada0 f   c32_CusakisME4901arcs2.obj
 0001:000ea770       _get_sim_state_c33_CusakisME4901arcs2 100eb770 f   c33_CusakisME4901arcs2.obj
 0001:000ea890       _sf_get_sim_state_info_c33_CusakisME4901arcs2 100eb890 f   c33_CusakisME4901arcs2.obj
 0001:000eaa30       _set_sim_state_c33_CusakisME4901arcs2 100eba30 f   c33_CusakisME4901arcs2.obj
 0001:000eaaf0       _c33_update_debugger_state_c33_CusakisME4901arcs2 100ebaf0 f   c33_CusakisME4901arcs2.obj
 0001:000eab00       _c33_emlrt_marshallIn      100ebb00 f   c33_CusakisME4901arcs2.obj
 0001:000eab50       _c33_b_emlrt_marshallIn    100ebb50 f   c33_CusakisME4901arcs2.obj
 0001:000eac00       _mdlProcessParameters_c33_CusakisME4901arcs2 100ebc00 f   c33_CusakisME4901arcs2.obj
 0001:000eaca0       _initialize_params_c33_CusakisME4901arcs2 100ebca0 f   c33_CusakisME4901arcs2.obj
 0001:000eacb0       _mdlSetWorkWidths_c33_CusakisME4901arcs2 100ebcb0 f   c33_CusakisME4901arcs2.obj
 0001:000eb040       _sf_get_instance_specialization 100ec040 f   c33_CusakisME4901arcs2.obj
 0001:000eb050       _mdlStart_c33_CusakisME4901arcs2 100ec050 f   c33_CusakisME4901arcs2.obj
 0001:000eb1c0       _init_dsm_address_info     100ec1c0 f   c33_CusakisME4901arcs2.obj
 0001:000eb1d0       _chart_debug_initialization 100ec1d0 f   c33_CusakisME4901arcs2.obj
 0001:000eb750       _init_script_number_translation 100ec750 f   c33_CusakisME4901arcs2.obj
 0001:000eb760       _c33_sf_marshallOut        100ec760 f   c33_CusakisME4901arcs2.obj
 0001:000eb7e0       _c33_sf_marshallIn         100ec7e0 f   c33_CusakisME4901arcs2.obj
 0001:000eb860       _sf_opaque_initialize_c33_CusakisME4901arcs2 100ec860 f   c33_CusakisME4901arcs2.obj
 0001:000eb890       _initialize_c33_CusakisME4901arcs2 100ec890 f   c33_CusakisME4901arcs2.obj
 0001:000eb8d0       _sf_opaque_enable_c33_CusakisME4901arcs2 100ec8d0 f   c33_CusakisME4901arcs2.obj
 0001:000eb8f0       _enable_c33_CusakisME4901arcs2 100ec8f0 f   c33_CusakisME4901arcs2.obj
 0001:000eb910       _sf_opaque_disable_c33_CusakisME4901arcs2 100ec910 f   c33_CusakisME4901arcs2.obj
 0001:000eb930       _disable_c33_CusakisME4901arcs2 100ec930 f   c33_CusakisME4901arcs2.obj
 0001:000eb950       _sf_opaque_gateway_c33_CusakisME4901arcs2 100ec950 f   c33_CusakisME4901arcs2.obj
 0001:000eb970       _sf_c33_CusakisME4901arcs2 100ec970 f   c33_CusakisME4901arcs2.obj
 0001:000ebfc0       _c33_b_sf_marshallOut      100ecfc0 f   c33_CusakisME4901arcs2.obj
 0001:000ec040       _c33_b_sf_marshallIn       100ed040 f   c33_CusakisME4901arcs2.obj
 0001:000ec0c0       _c33_c_emlrt_marshallIn    100ed0c0 f   c33_CusakisME4901arcs2.obj
 0001:000ec110       _sf_opaque_get_sim_state_c33_CusakisME4901arcs2 100ed110 f   c33_CusakisME4901arcs2.obj
 0001:000ec130       _sf_opaque_set_sim_state_c33_CusakisME4901arcs2 100ed130 f   c33_CusakisME4901arcs2.obj
 0001:000ec150       _sf_opaque_terminate_c33_CusakisME4901arcs2 100ed150 f   c33_CusakisME4901arcs2.obj
 0001:000ec1c0       _finalize_c33_CusakisME4901arcs2 100ed1c0 f   c33_CusakisME4901arcs2.obj
 0001:000ec1d0       _sf_opaque_init_subchart_simstructs 100ed1d0 f   c33_CusakisME4901arcs2.obj
 0001:000ec1f0       _initSimStructsc33_CusakisME4901arcs2 100ed1f0 f   c33_CusakisME4901arcs2.obj
 0001:000ec200       _mdlRTW_c33_CusakisME4901arcs2 100ed200 f   c33_CusakisME4901arcs2.obj
 0001:000ed050       _get_sim_state_c34_CusakisME4901arcs2 100ee050 f   c34_CusakisME4901arcs2.obj
 0001:000ed2b0       _sf_get_sim_state_info_c34_CusakisME4901arcs2 100ee2b0 f   c34_CusakisME4901arcs2.obj
 0001:000ed450       _set_sim_state_c34_CusakisME4901arcs2 100ee450 f   c34_CusakisME4901arcs2.obj
 0001:000ed5d0       _c34_update_debugger_state_c34_CusakisME4901arcs2 100ee5d0 f   c34_CusakisME4901arcs2.obj
 0001:000ed5e0       _c34_emlrt_marshallIn      100ee5e0 f   c34_CusakisME4901arcs2.obj
 0001:000ed630       _c34_b_emlrt_marshallIn    100ee630 f   c34_CusakisME4901arcs2.obj
 0001:000ed6e0       _mdlProcessParameters_c34_CusakisME4901arcs2 100ee6e0 f   c34_CusakisME4901arcs2.obj
 0001:000ed780       _initialize_params_c34_CusakisME4901arcs2 100ee780 f   c34_CusakisME4901arcs2.obj
 0001:000ed790       _mdlSetWorkWidths_c34_CusakisME4901arcs2 100ee790 f   c34_CusakisME4901arcs2.obj
 0001:000edb40       _sf_get_instance_specialization 100eeb40 f   c34_CusakisME4901arcs2.obj
 0001:000edb50       _mdlStart_c34_CusakisME4901arcs2 100eeb50 f   c34_CusakisME4901arcs2.obj
 0001:000edcc0       _init_dsm_address_info     100eecc0 f   c34_CusakisME4901arcs2.obj
 0001:000edcd0       _chart_debug_initialization 100eecd0 f   c34_CusakisME4901arcs2.obj
 0001:000ee510       _init_script_number_translation 100ef510 f   c34_CusakisME4901arcs2.obj
 0001:000ee520       _c34_sf_marshallOut        100ef520 f   c34_CusakisME4901arcs2.obj
 0001:000ee5a0       _c34_sf_marshallIn         100ef5a0 f   c34_CusakisME4901arcs2.obj
 0001:000ee620       _c34_b_sf_marshallOut      100ef620 f   c34_CusakisME4901arcs2.obj
 0001:000ee6a0       _sf_opaque_initialize_c34_CusakisME4901arcs2 100ef6a0 f   c34_CusakisME4901arcs2.obj
 0001:000ee6d0       _initialize_c34_CusakisME4901arcs2 100ef6d0 f   c34_CusakisME4901arcs2.obj
 0001:000ee710       _sf_opaque_enable_c34_CusakisME4901arcs2 100ef710 f   c34_CusakisME4901arcs2.obj
 0001:000ee730       _enable_c34_CusakisME4901arcs2 100ef730 f   c34_CusakisME4901arcs2.obj
 0001:000ee750       _sf_opaque_disable_c34_CusakisME4901arcs2 100ef750 f   c34_CusakisME4901arcs2.obj
 0001:000ee770       _disable_c34_CusakisME4901arcs2 100ef770 f   c34_CusakisME4901arcs2.obj
 0001:000ee790       _sf_opaque_gateway_c34_CusakisME4901arcs2 100ef790 f   c34_CusakisME4901arcs2.obj
 0001:000ee7b0       _sf_c34_CusakisME4901arcs2 100ef7b0 f   c34_CusakisME4901arcs2.obj
 0001:000ef1b0       _c34_b_sf_marshallIn       100f01b0 f   c34_CusakisME4901arcs2.obj
 0001:000ef230       _c34_c_emlrt_marshallIn    100f0230 f   c34_CusakisME4901arcs2.obj
 0001:000ef280       _c34_c_sf_marshallOut      100f0280 f   c34_CusakisME4901arcs2.obj
 0001:000ef340       _c34_c_sf_marshallIn       100f0340 f   c34_CusakisME4901arcs2.obj
 0001:000ef3e0       _c34_d_emlrt_marshallIn    100f03e0 f   c34_CusakisME4901arcs2.obj
 0001:000ef450       _c34_typecast              100f0450 f   c34_CusakisME4901arcs2.obj
 0001:000ef470       _sf_opaque_get_sim_state_c34_CusakisME4901arcs2 100f0470 f   c34_CusakisME4901arcs2.obj
 0001:000ef490       _sf_opaque_set_sim_state_c34_CusakisME4901arcs2 100f0490 f   c34_CusakisME4901arcs2.obj
 0001:000ef4b0       _sf_opaque_terminate_c34_CusakisME4901arcs2 100f04b0 f   c34_CusakisME4901arcs2.obj
 0001:000ef520       _finalize_c34_CusakisME4901arcs2 100f0520 f   c34_CusakisME4901arcs2.obj
 0001:000ef530       _sf_opaque_init_subchart_simstructs 100f0530 f   c34_CusakisME4901arcs2.obj
 0001:000ef550       _initSimStructsc34_CusakisME4901arcs2 100f0550 f   c34_CusakisME4901arcs2.obj
 0001:000ef560       _mdlRTW_c34_CusakisME4901arcs2 100f0560 f   c34_CusakisME4901arcs2.obj
 0001:000ef8e0       _c35_info_helper           100f08e0 f   c35_CusakisME4901arcs2.obj
 0001:000f1530       _get_sim_state_c35_CusakisME4901arcs2 100f2530 f   c35_CusakisME4901arcs2.obj
 0001:000f1910       _sf_get_sim_state_info_c35_CusakisME4901arcs2 100f2910 f   c35_CusakisME4901arcs2.obj
 0001:000f1ab0       _set_sim_state_c35_CusakisME4901arcs2 100f2ab0 f   c35_CusakisME4901arcs2.obj
 0001:000f1d10       _c35_update_debugger_state_c35_CusakisME4901arcs2 100f2d10 f   c35_CusakisME4901arcs2.obj
 0001:000f1d20       _c35_emlrt_marshallIn      100f2d20 f   c35_CusakisME4901arcs2.obj
 0001:000f1d70       _c35_b_emlrt_marshallIn    100f2d70 f   c35_CusakisME4901arcs2.obj
 0001:000f1dc0       _c35_c_emlrt_marshallIn    100f2dc0 f   c35_CusakisME4901arcs2.obj
 0001:000f1e10       _c35_d_emlrt_marshallIn    100f2e10 f   c35_CusakisME4901arcs2.obj
 0001:000f1e80       _c35_g_emlrt_marshallIn    100f2e80 f   c35_CusakisME4901arcs2.obj
 0001:000f1ed0       _c35_h_emlrt_marshallIn    100f2ed0 f   c35_CusakisME4901arcs2.obj
 0001:000f1f80       _mdlProcessParameters_c35_CusakisME4901arcs2 100f2f80 f   c35_CusakisME4901arcs2.obj
 0001:000f2020       _initialize_params_c35_CusakisME4901arcs2 100f3020 f   c35_CusakisME4901arcs2.obj
 0001:000f2030       _mdlSetWorkWidths_c35_CusakisME4901arcs2 100f3030 f   c35_CusakisME4901arcs2.obj
 0001:000f2470       _sf_get_instance_specialization 100f3470 f   c35_CusakisME4901arcs2.obj
 0001:000f2480       _mdlStart_c35_CusakisME4901arcs2 100f3480 f   c35_CusakisME4901arcs2.obj
 0001:000f25f0       _init_dsm_address_info     100f35f0 f   c35_CusakisME4901arcs2.obj
 0001:000f2600       _chart_debug_initialization 100f3600 f   c35_CusakisME4901arcs2.obj
 0001:000f3670       _init_script_number_translation 100f4670 f   c35_CusakisME4901arcs2.obj
 0001:000f3680       _c35_sf_marshallOut        100f4680 f   c35_CusakisME4901arcs2.obj
 0001:000f3700       _c35_sf_marshallIn         100f4700 f   c35_CusakisME4901arcs2.obj
 0001:000f3780       _c35_b_sf_marshallOut      100f4780 f   c35_CusakisME4901arcs2.obj
 0001:000f3840       _c35_b_sf_marshallIn       100f4840 f   c35_CusakisME4901arcs2.obj
 0001:000f38e0       _sf_opaque_initialize_c35_CusakisME4901arcs2 100f48e0 f   c35_CusakisME4901arcs2.obj
 0001:000f3910       _initialize_c35_CusakisME4901arcs2 100f4910 f   c35_CusakisME4901arcs2.obj
 0001:000f3950       _sf_opaque_enable_c35_CusakisME4901arcs2 100f4950 f   c35_CusakisME4901arcs2.obj
 0001:000f3970       _enable_c35_CusakisME4901arcs2 100f4970 f   c35_CusakisME4901arcs2.obj
 0001:000f3990       _sf_opaque_disable_c35_CusakisME4901arcs2 100f4990 f   c35_CusakisME4901arcs2.obj
 0001:000f39b0       _disable_c35_CusakisME4901arcs2 100f49b0 f   c35_CusakisME4901arcs2.obj
 0001:000f39d0       _sf_opaque_gateway_c35_CusakisME4901arcs2 100f49d0 f   c35_CusakisME4901arcs2.obj
 0001:000f39f0       _sf_c35_CusakisME4901arcs2 100f49f0 f   c35_CusakisME4901arcs2.obj
 0001:000f3ec0       _c35_chartstep_c35_CusakisME4901arcs2 100f4ec0 f   c35_CusakisME4901arcs2.obj
 0001:000f73d0       _c35_c_sf_marshallOut      100f83d0 f   c35_CusakisME4901arcs2.obj
 0001:000f7510       _c35_c_sf_marshallIn       100f8510 f   c35_CusakisME4901arcs2.obj
 0001:000f75f0       _c35_e_emlrt_marshallIn    100f85f0 f   c35_CusakisME4901arcs2.obj
 0001:000f7680       _c35_eml_scalar_eg         100f8680 f   c35_CusakisME4901arcs2.obj
 0001:000f7690       _c35_mpower                100f8690 f   c35_CusakisME4901arcs2.obj
 0001:000f76e0       _c35_b_eml_scalar_eg       100f86e0 f   c35_CusakisME4901arcs2.obj
 0001:000f76f0       _c35_abs                   100f86f0 f   c35_CusakisME4901arcs2.obj
 0001:000f7720       _c35_b_sqrt                100f8720 f   c35_CusakisME4901arcs2.obj
 0001:000f7760       _c35_eml_error             100f8760 f   c35_CusakisME4901arcs2.obj
 0001:000f7880       _c35_b_asin                100f8880 f   c35_CusakisME4901arcs2.obj
 0001:000f78f0       _c35_b_eml_error           100f88f0 f   c35_CusakisME4901arcs2.obj
 0001:000f7a10       _sf_opaque_get_sim_state_c35_CusakisME4901arcs2 100f8a10 f   c35_CusakisME4901arcs2.obj
 0001:000f7a30       _sf_opaque_set_sim_state_c35_CusakisME4901arcs2 100f8a30 f   c35_CusakisME4901arcs2.obj
 0001:000f7a50       _sf_opaque_terminate_c35_CusakisME4901arcs2 100f8a50 f   c35_CusakisME4901arcs2.obj
 0001:000f7ac0       _finalize_c35_CusakisME4901arcs2 100f8ac0 f   c35_CusakisME4901arcs2.obj
 0001:000f7ad0       _sf_opaque_init_subchart_simstructs 100f8ad0 f   c35_CusakisME4901arcs2.obj
 0001:000f7af0       _initSimStructsc35_CusakisME4901arcs2 100f8af0 f   c35_CusakisME4901arcs2.obj
 0001:000f7b00       _mdlRTW_c35_CusakisME4901arcs2 100f8b00 f   c35_CusakisME4901arcs2.obj
 0001:000f9170       __ssFatalError             100fa170 f   CusakisME4901arcs2_sfun_registry.obj
 0001:000fb4d0       _ProcessMexSfunctionCmdLineCall 100fc4d0 f   CusakisME4901arcs2_sfun_registry.obj
 0001:000fb5c0       _sf_debug_api_wrapper      100fc5c0 f   CusakisME4901arcs2_sfun_registry.obj
 0001:000fb5f0       _mdlGetTimeOfNextVarHit    100fc5f0 f   CusakisME4901arcs2_sfun_registry.obj
 0001:000fb630       __ProcessMexSfunctionCmdLineCall 100fc630 f   CusakisME4901arcs2_sfun_registry.obj
 0001:000fbc50       __CreateSimStruct          100fcc50 f   CusakisME4901arcs2_sfun_registry.obj
 0001:000fbd80       __RegNumInputPortsCB       100fcd80 f   CusakisME4901arcs2_sfun_registry.obj
 0001:000fbde0       __RegNumOutputPortsCB      100fcde0 f   CusakisME4901arcs2_sfun_registry.obj
 0001:000fbe90       _sf_machine_load_sfunction_ptrs 100fce90 f   CusakisME4901arcs2_sfun_registry.obj
 0001:000fe480       _getThreadLocalStorage     100ff480 f   sfc_mexmsvc80:sfc_mex.obj
 0001:000fe4b0       _releaseThreadLocalStorage 100ff4b0 f   sfc_mexmsvc80:sfc_mex.obj
 0001:000fe4c0       _SNPRINTF_WRAPPER          100ff4c0 f   sfc_mexmsvc80:sfc_mex.obj
 0001:000fe4e0       _convert_dims_to_string    100ff4e0 f   sfc_mexmsvc80:sfc_mex.obj
 0001:000fe6b0       _is_real_T_equal_to_double 100ff6b0 f   sfc_mexmsvc80:sfc_mex.obj
 0001:000fe6d0       _is_real32_T_equal_to_double 100ff6d0 f   sfc_mexmsvc80:sfc_mex.obj
 0001:000fe6e0       _is_mxLogical_equal_to_double 100ff6e0 f   sfc_mexmsvc80:sfc_mex.obj
 0001:000fe710       _is_int8_T_equal_to_double 100ff710 f   sfc_mexmsvc80:sfc_mex.obj
 0001:000fe740       _is_uint8_T_equal_to_double 100ff740 f   sfc_mexmsvc80:sfc_mex.obj
 0001:000fe770       _is_int16_T_equal_to_double 100ff770 f   sfc_mexmsvc80:sfc_mex.obj
 0001:000fe7a0       _is_uint16_T_equal_to_double 100ff7a0 f   sfc_mexmsvc80:sfc_mex.obj
 0001:000fe7d0       _is_int32_T_equal_to_double 100ff7d0 f   sfc_mexmsvc80:sfc_mex.obj
 0001:000fe7f0       _is_uint32_T_equal_to_double 100ff7f0 f   sfc_mexmsvc80:sfc_mex.obj
 0001:000fe820       _is_char_T_equal_to_double 100ff820 f   sfc_mexmsvc80:sfc_mex.obj
 0001:000fe850       _sf_zero_numeric_value     100ff850 f   sfc_mexmsvc80:sfc_mex.obj
 0001:000fe890       _sf_error_append_debugger_context_if_available 100ff890 f   sfc_mexmsvc80:sfc_mex.obj
 0001:000fe960       _sf_mex_get_error_message_for_write 100ff960 f   sfc_mexmsvc80:sfc_mex.obj
 0001:000fe990       _replace_single_quotes_by_doubled_quotes 100ff990 f   sfc_mexmsvc80:sfc_mex.obj
 0001:000feba0       _sf_mex_get_formatted_error_string 100ffba0 f   sfc_mexmsvc80:sfc_mex.obj
 0001:000fef70       _sf_mex_destroy_array      100fff70 f   sfc_mexmsvc80:sfc_mex.obj
 0001:000ff190       _sfrtAddSize               10100190 f   sfc_mexmsvc80:sfc_mex.obj
 0001:000ff240       _sfrtGenSizeString         10100240 f   sfc_mexmsvc80:sfc_mex.obj
 0001:000ff270       _sfIsProperVector          10100270 f   sfc_mexmsvc80:sfc_mex.obj
 0001:000ff2a0       _sfIsRowVector             101002a0 f   sfc_mexmsvc80:sfc_mex.obj
 0001:000ff3d0       _sf_ExtractMessageId       101003d0 f   sfc_mexmsvc80:sfc_mex.obj
 0001:000ff620       _sf_mex_err                10100620 f   sfc_mexmsvc80:sfc_mex.obj
 0001:000ff6b0       _sf_error_dimension_out_of_bound 101006b0 f   sfc_mexmsvc80:sfc_mex.obj
 0001:000ff750       _sf_mex_check_and_set_actual_dimensions 10100750 f   sfc_mexmsvc80:sfc_mex.obj
 0001:000ff8d0       _sf_mex_check_complex      101008d0 f   sfc_mexmsvc80:sfc_mex.obj
 0001:000ff940       _sf_mex_check_sparse       10100940 f   sfc_mexmsvc80:sfc_mex.obj
 0001:000ff980       _sf_mex_check_numerictype  10100980 f   sfc_mexmsvc80:sfc_mex.obj
 0001:000ffa10       _sf_mex_check_fimath       10100a10 f   sfc_mexmsvc80:sfc_mex.obj
 0001:00100110       _size_mismatch_error       10101110 f   sfc_mexmsvc80:sfc_mex.obj
 0001:00100960       _check_array_dimensions    10101960 f   sfc_mexmsvc80:sfc_mex.obj
 0001:001009b0       _check_input_mxarray       101019b0 f   sfc_mexmsvc80:sfc_mex.obj
 0001:00101050       _sf_numeric_value_to_double 10102050 f   sfc_mexmsvc80:sfc_mex.obj
 0001:00101090       _ml_generic_out_of_bounds_check 10102090 f   sfc_mexmsvc80:sfc_mex.obj
 0001:00101220       _ml_get_element_value_from_array 10102220 f   sfc_mexmsvc80:sfc_mex.obj
 0001:001016f0       __ml_generic_castability_check 101026f0 f   sfc_mexmsvc80:sfc_mex.obj
 0001:00101f80       _ml_generic_castability_check 10102f80 f   sfc_mexmsvc80:sfc_mex.obj
 0001:00101fe0       _ml_check_mx_array_for_single_castability 10102fe0 f   sfc_mexmsvc80:sfc_mex.obj
 0001:00102050       _ml_check_mx_array_for_logical_castability 10103050 f   sfc_mexmsvc80:sfc_mex.obj
 0001:001020b0       _ml_check_mx_array_for_int8_castability 101030b0 f   sfc_mexmsvc80:sfc_mex.obj
 0001:00102140       _ml_check_mx_array_for_uint8_castability 10103140 f   sfc_mexmsvc80:sfc_mex.obj
 0001:001021b0       _ml_check_mx_array_for_int16_castability 101031b0 f   sfc_mexmsvc80:sfc_mex.obj
 0001:00102220       _ml_check_mx_array_for_uint16_castability 10103220 f   sfc_mexmsvc80:sfc_mex.obj
 0001:00102290       _ml_check_mx_array_for_int32_castability 10103290 f   sfc_mexmsvc80:sfc_mex.obj
 0001:00102300       _ml_check_mx_array_for_uint32_castability 10103300 f   sfc_mexmsvc80:sfc_mex.obj
 0001:00102370       _ml_check_mx_array_for_castability 10103370 f   sfc_mexmsvc80:sfc_mex.obj
 0001:00102a00       _set_data_value            10103a00 f   sfc_mexmsvc80:sfc_mex.obj
 0001:00102ed0       _get_data_value            10103ed0 f   sfc_mexmsvc80:sfc_mex.obj
 0001:00102fd0       _get_next_element_address  10103fd0 f   sfc_mexmsvc80:sfc_mex.obj
 0001:00103070       _sf_normalize_index        10104070 f   sfc_mexmsvc80:sfc_mex.obj
 0001:00103300       _ml_array_index_bound_check 10104300 f   sfc_mexmsvc80:sfc_mex.obj
 0001:00103bf0       _mx_value                  10104bf0 f   sfc_mexmsvc80:sfc_mex.obj
 0001:00103c40       _sf_create_numeric_array   10104c40 f   sfc_mexmsvc80:sfc_mex.obj
 0001:00103cc0       _sf_mex_assign_to_mx_array 10104cc0 f   sfc_mexmsvc80:sfc_mex.obj
 0001:00103f20       _assign_from_mx_array      10104f20 f   sfc_mexmsvc80:sfc_mex.obj
 0001:001046e0       _sf_mex_import_v           101056e0 f   sfc_mexmsvc80:sfc_mex.obj
 0001:00104ba0       _get_machine_and_chart_file_number 10105ba0 f   sfc_mexmsvc80:sfc_sf.obj
 0001:00104c60       _get_sfun_block_specialization 10105c60 f   sfc_mexmsvc80:sfc_sf.obj
 0001:00104ce0       _call_sf_machine_global_method_dispatcher 10105ce0 f   sfc_mexmsvc80:sfc_sf.obj
 0001:00104ea0       _mdl_zeroCrossings_processing 10105ea0 f   sfc_mexmsvc80:sfc_sf.obj
 0001:00104f50       _mdl_derivatives_processing 10105f50 f   sfc_mexmsvc80:sfc_sf.obj
 0001:001051d0       _mdl_outputs_continuous_legacy 101061d0 f   sfc_mexmsvc80:sfc_sf.obj
 0001:00105250       _mdl_outputs_processing    10106250 f   sfc_mexmsvc80:sfc_sf.obj
 0001:00105480       _mdl_enable_processing     10106480 f   sfc_mexmsvc80:sfc_sf.obj
 0001:00105530       _mdl_disable_processing    10106530 f   sfc_mexmsvc80:sfc_sf.obj
 0001:001060a0       _sf_call_output_fcn_enable_disable 101070a0 f   sfc_mexmsvc80:sfc_sf.obj
 0001:001062c0       _set_dwork_information_from_mx_array 101072c0 f   sfc_mexmsvc80:sfc_sf.obj
 0001:00106c60       _ptr2mxStruct              10107c60 f   sfc_mexmsvc80:sfc_sf.obj
 0001:00106e80       _SNPRINTF_WRAPPER          10107e80 f   sfc_debugmsvc80:sfcdebug.obj
 0001:00106ec0       _sf_debug_chart_instance_initialized 10107ec0 f   sfc_debugmsvc80:sfcdebug.obj
 0001:00107040       _sfrtAddSize               10108040 f   sfc_debugmsvc80:sfcdebug.obj
 0001:001070f0       _sfrtGenSizeString         101080f0 f   sfc_debugmsvc80:sfcdebug.obj
 0001:001075a0       _fill_single_message_info  101085a0 f   sfc_debugmsvc80:sfcdebug.obj
 0001:00107700       _sf_debug_sim_status_listener 10108700 f   sfc_debugmsvc80:sfcdebug.obj
 0001:00107bd0       _sf_debug_form_mask_bits   10108bd0 f   sfc_debugmsvc80:sfcdebug.obj
 0001:00107c10       _sf_debug_form_sf_data_type_offsets 10108c10 f   sfc_debugmsvc80:sfcdebug.obj
 0001:00107ca0       _sf_debug_free_all         10108ca0 f   sfc_debugmsvc80:sfcdebug.obj
 0001:00107e40       _sf_debug_append_debugger_context 10108e40 f   sfc_debugmsvc80:sfcdebug.obj
 0001:001081a0       _local_strdup              101091a0 f   sfc_debugmsvc80:sfcdebug.obj
 0001:00108ea0       _sf_debug_em_terminate     10109ea0 f   sfc_debugmsvc80:sfcdebug.obj
 0001:00108ee0       _sf_debug_push_eml_function 10109ee0 f   sfc_debugmsvc80:sfcdebug.obj
 0001:00108f70       _sf_debug_pop_eml_function 10109f70 f   sfc_debugmsvc80:sfcdebug.obj
 0001:00109840       _sf_debug_get_machine_number_from_id_or_name 1010a840 f   sfc_debugmsvc80:sfcdebug.obj
 0001:001099a0       _sf_debug_get_chart_number_from_id 1010a9a0 f   sfc_debugmsvc80:sfcdebug.obj
 0001:0010a3b0       _sf_debug_transfer_control_to_debugger_GUI 1010b3b0 f   sfc_debugmsvc80:sfcdebug.obj
 0001:0010b200       _sf_debug_scripts_rehash   1010c200 f   sfc_debugmsvc80:sfcdebug.obj
 0001:0010b3b0       _sf_debug_get_script_line_count 1010c3b0 f   sfc_debugmsvc80:sfcdebug.obj
 0001:0010ba60       _cv_eml_state_cvId         1010ca60 f   sfc_debugmsvc80:sfcdebug.obj
 0001:0010bab0       _cv_eml_trans_cvId         1010cab0 f   sfc_debugmsvc80:sfcdebug.obj
 0001:0010c920       _sf_debug_data_array_bounds_error 1010d920 f   sfc_debugmsvc80:sfcdebug.obj
 0001:0010cc30       _eml_debug_runtime_error_doclink 1010dc30 f   sfc_debugmsvc80:sfcdebug.obj
 0001:0010cd60       _sf_debug_runtime_error    1010dd60 f   sfc_debugmsvc80:sfcdebug.obj
 0001:0010cdb0       _sf_debug_matlab_error     1010ddb0 f   sfc_debugmsvc80:sfcdebug.obj
 0001:0010d380       _sf_debug_data_value_error 1010e380 f   sfc_debugmsvc80:sfcdebug.obj
 0001:0010d9a0       _sf_debug_data_loss_error  1010e9a0 f   sfc_debugmsvc80:sfcdebug.obj
 0001:0010e510       _call_cv_range_check       1010f510 f   sfc_debugmsvc80:sfcdebug.obj
 0001:0010eab0       _sf_debug_invoke_cycle_detection_code 1010fab0 f   sfc_debugmsvc80:sfcdebug.obj
 0001:0010f430       _sf_reset_debug_info_struct 10110430 f   sfc_debugmsvc80:sfcdebug.obj
 0001:0010fa90       _cv_script_cvId            10110a90 f   sfc_debugmsvc80:sfcdebug.obj
 0001:001104f0       _sfc_api_chart_visible     101114f0 f   sfc_debugmsvc80:sfc_api.obj
 0001:001105b0       _sfc_api_active_instance   101115b0 f   sfc_debugmsvc80:sfc_api.obj
 0001:00110650       _sfc_api_machine_load      10111650 f   sfc_debugmsvc80:sfc_api.obj
 0001:00110760       _sfc_api_debugger_alive    10111760 f   sfc_debugmsvc80:sfc_api.obj
 0001:00110780       _sfc_api_go                10111780 f   sfc_debugmsvc80:sfc_api.obj
 0001:001107a0       _sfc_api_step_over         101117a0 f   sfc_debugmsvc80:sfc_api.obj
 0001:001107c0       _sfc_api_step_out          101117c0 f   sfc_debugmsvc80:sfc_api.obj
 0001:001107e0       _sfc_api_resume            101117e0 f   sfc_debugmsvc80:sfc_api.obj
 0001:00110800       _sfc_api_break             10111800 f   sfc_debugmsvc80:sfc_api.obj
 0001:00110820       _sfc_api_stop_debugging    10111820 f   sfc_debugmsvc80:sfc_api.obj
 0001:00110870       _sfc_api_is_cycle_detected 10111870 f   sfc_debugmsvc80:sfc_api.obj
 0001:001108c0       _sfc_api_is_array_bounds_detected 101118c0 f   sfc_debugmsvc80:sfc_api.obj
 0001:00110910       _sfc_api_set_disable_all_breakpoints 10111910 f   sfc_debugmsvc80:sfc_api.obj
 0001:001109a0       _sfc_api_disable_all_breakpoints_and_go 101119a0 f   sfc_debugmsvc80:sfc_api.obj
 0001:001109c0       _sfc_api_close             101119c0 f   sfc_debugmsvc80:sfc_api.obj
 0001:001109e0       _sfc_api_browse_data       101119e0 f   sfc_debugmsvc80:sfc_api.obj
 0001:00110a60       _sfc_api_watch_data        10111a60 f   sfc_debugmsvc80:sfc_api.obj
 0001:00110b60       _sfc_api_extract_message_post_receive_info 10111b60 f   sfc_debugmsvc80:sfc_api.obj
 0001:00110b80       _sfc_api_assign_data       10111b80 f   sfc_debugmsvc80:sfc_api.obj
 0001:00110c00       _sfc_api_whos              10111c00 f   sfc_debugmsvc80:sfc_api.obj
 0001:00110c90       _sfc_api_get_consistency_info 10111c90 f   sfc_debugmsvc80:sfc_api.obj
 0001:00110cb0       _sfc_api_browse_trace      10111cb0 f   sfc_debugmsvc80:sfc_api.obj
 0001:00110cd0       _sfc_api_break_on_chart_entry 10111cd0 f   sfc_debugmsvc80:sfc_api.obj
 0001:00110d10       _sfc_api_break_on_event_broadcast 10111d10 f   sfc_debugmsvc80:sfc_api.obj
 0001:00110d50       _sfc_api_break_on_state_entry 10111d50 f   sfc_debugmsvc80:sfc_api.obj
 0001:00110d90       _sfc_api_set_watch         10111d90 f   sfc_debugmsvc80:sfc_api.obj
 0001:00110e70       _sfc_api_set_breakpoints   10111e70 f   sfc_debugmsvc80:sfc_api.obj
 0001:00110f50       _sfc_api_set_eml_breakpoints 10111f50 f   sfc_debugmsvc80:sfc_api.obj
 0001:00111000       _sfc_api_set_script_breakpoints 10112000 f   sfc_debugmsvc80:sfc_api.obj
 0001:00111070       _sfc_api_add_script_breakpoints 10112070 f   sfc_debugmsvc80:sfc_api.obj
 0001:001110e0       _sfc_api_clear_script_breakpoints 101120e0 f   sfc_debugmsvc80:sfc_api.obj
 0001:00111150       _sfc_api_query_script_breakpoints 10112150 f   sfc_debugmsvc80:sfc_api.obj
 0001:001111c0       _sfc_api_get_script_id     101121c0 f   sfc_debugmsvc80:sfc_api.obj
 0001:00111260       _sfc_api_get_active_states 10112260 f   sfc_debugmsvc80:sfc_api.obj
 0001:001112d0       _sfc_api_break_between_times 101122d0 f   sfc_debugmsvc80:sfc_api.obj
 0001:00111330       _sfc_api_get_instance_handle 10112330 f   sfc_debugmsvc80:sfc_api.obj
 0001:00111410       _sfc_api_set_animation     10112410 f   sfc_debugmsvc80:sfc_api.obj
 0001:00111470       _sfc_api_select_chart      10112470 f   sfc_debugmsvc80:sfc_api.obj
 0001:00111500       _sfc_api_select_charts     10112500 f   sfc_debugmsvc80:sfc_api.obj
 0001:00111530       _sfc_api_cycle_detection_check 10112530 f   sfc_debugmsvc80:sfc_api.obj
 0001:00111590       _sfc_api_data_range_check  10112590 f   sfc_debugmsvc80:sfc_api.obj
 0001:001115f0       _sfc_api_transition_conflict_check 101125f0 f   sfc_debugmsvc80:sfc_api.obj
 0001:00111650       _sfc_api_state_consistency_check 10112650 f   sfc_debugmsvc80:sfc_api.obj
 0001:001116b0       _sfc_api_set_instance_cv_ids 101126b0 f   sfc_debugmsvc80:sfc_api.obj
 0001:001117e0       _sfc_api_set_script_cv_ids 101127e0 f   sfc_debugmsvc80:sfc_api.obj
 0001:001118b0       _sfc_api_get_current_machine_id 101128b0 f   sfc_debugmsvc80:sfc_api.obj
 0001:001118f0       _sfc_api_get_current_machine_number 101128f0 f   sfc_debugmsvc80:sfc_api.obj
 0001:00111930       _sfc_api_get_current_chart_number 10112930 f   sfc_debugmsvc80:sfc_api.obj
 0001:00111970       _sfc_api_get_current_instance_number 10112970 f   sfc_debugmsvc80:sfc_api.obj
 0001:001119b0       _sfc_api_get_current_instance_handle 101129b0 f   sfc_debugmsvc80:sfc_api.obj
 0001:001119d0       _sfc_api_get_current_is_minor_time_step 101129d0 f   sfc_debugmsvc80:sfc_api.obj
 0001:00111a10       _sfc_api_get_current_machine_name 10112a10 f   sfc_debugmsvc80:sfc_api.obj
 0001:00111a30       _sfc_api_get_current_chart_id 10112a30 f   sfc_debugmsvc80:sfc_api.obj
 0001:00111a70       _sfc_api_get_current_object_type 10112a70 f   sfc_debugmsvc80:sfc_api.obj
 0001:00111ab0       _sfc_api_get_current_event_type 10112ab0 f   sfc_debugmsvc80:sfc_api.obj
 0001:00111af0       _sfc_api_get_current_object_id 10112af0 f   sfc_debugmsvc80:sfc_api.obj
 0001:00111b30       _sfc_get_current_active_event_type 10112b30 f   sfc_debugmsvc80:sfc_api.obj
 0001:00111b70       _sfc_api_get_current_active_event_id 10112b70 f   sfc_debugmsvc80:sfc_api.obj
 0001:00111bb0       _sfc_api_get_current_simulation_time 10112bb0 f   sfc_debugmsvc80:sfc_api.obj
 0001:00111bd0       _sfc_get_current_tag_type  10112bd0 f   sfc_debugmsvc80:sfc_api.obj
 0001:00111c10       _sfc_get_current_coverage_percentage 10112c10 f   sfc_debugmsvc80:sfc_api.obj
 0001:00111c30       _sfc_get_current_statement_context 10112c30 f   sfc_debugmsvc80:sfc_api.obj
 0001:00111c50       _sfc_get_current_optional_integer 10112c50 f   sfc_debugmsvc80:sfc_api.obj
 0001:00111c80       _sfc_get_current_statement_info 10112c80 f   sfc_debugmsvc80:sfc_api.obj
 0001:00111d20       _sfc_api_get               10112d20 f   sfc_debugmsvc80:sfc_api.obj
 0001:00112770       _sf_debug_sm_fill_state_activity_data 10113770 f   sfc_debugmsvc80:sfdb_animation.obj
 0001:00114a40       _void_ptr_stack_vector_free_total 10115a40 f   sfc_debugmsvc80:sfdb_data_browse.obj
 0001:00114aa0       _sf_debug_st_terminate_machine 10115aa0 f   sfc_debugmsvc80:sfdb_data_browse.obj
 0001:00114ad0       _sf_debug_st_terminate_instance 10115ad0 f   sfc_debugmsvc80:sfdb_data_browse.obj
 0001:00114c50       _push_on_to_void_ptr_stack 10115c50 f   sfc_debugmsvc80:sfdb_data_browse.obj
 0001:00114d80       _pop_from_void_ptr_stack   10115d80 f   sfc_debugmsvc80:sfdb_data_browse.obj
 0001:00114e80       _sf_debug_st_get_data_value 10115e80 f   sfc_debugmsvc80:sfdb_data_browse.obj
 0001:00115320       _mx_value                  10116320 f   sfc_debugmsvc80:sfdb_data_browse.obj
 0001:00115350       _sf_debug_st_fill_data_struct 10116350 f   sfc_debugmsvc80:sfdb_data_browse.obj
 0001:00115620       _data_type_format_strings  10116620 f   sfc_debugmsvc80:sfdb_data_browse.obj
 0001:00115690       _sf_debug_st_fill_data     10116690 f   sfc_debugmsvc80:sfdb_data_browse.obj
 0001:00116090       _sf_debug_hm_get_simulink_handle 10117090 f   sfc_debugmsvc80:sfdb_handle_management.obj
 0001:00116a10       _sf_debug_hm_initialize_globals 10117a10 f   sfc_debugmsvc80:sfdb_handle_management.obj
 0001:00116b00       _sf_debug_hm_get_machine_debug_flag 10117b00 f   sfc_debugmsvc80:sfdb_handle_management.obj
 0001:00116c50       _sf_debug_hm_get_machine_id 10117c50 f   sfc_debugmsvc80:sfdb_handle_management.obj
 0001:00116d60       _sf_debug_hm_get_chart_id  10117d60 f   sfc_debugmsvc80:sfdb_handle_management.obj
 0001:00116ed0       _sf_debug_hm_register_executing_SFunction 10117ed0 f   sfc_debugmsvc80:sfdb_handle_management.obj
 0001:001171d0       _sf_debug_hm_form_object_boolean_properties 101181d0 f   sfc_debugmsvc80:sfdb_handle_management.obj
 0001:00117440       _sf_debug_hm_form_object_properties 10118440 f   sfc_debugmsvc80:sfdb_handle_management.obj
 0001:00117640       _sf_debug_hm_terminate_charts 10118640 f   sfc_debugmsvc80:sfdb_handle_management.obj
 0001:00117c60       _sf_debug_hm_terminate_machines 10118c60 f   sfc_debugmsvc80:sfdb_handle_management.obj
 0001:00119480       _sf_debug_ss_copy_dimension 1011a480 f   sfc_debugmsvc80:sfdb_symbol_scope.obj
 0001:001194f0       _sf_debug_ss_get_number_elements 1011a4f0 f   sfc_debugmsvc80:sfdb_symbol_scope.obj
 0001:00119510       _sf_debug_ss_fill_data_struct 1011a510 f   sfc_debugmsvc80:sfdb_symbol_scope.obj
 0001:00119700       _sf_debug_ss_reset_data_info 1011a700 f   sfc_debugmsvc80:sfdb_symbol_scope.obj
 0001:00119750       _sf_debug_fill_data_info_by_symbol_scope_entry 1011a750 f   sfc_debugmsvc80:sfdb_symbol_scope.obj
 0001:00119800       _sf_debug_fill_data_info_by_data_vector 1011a800 f   sfc_debugmsvc80:sfdb_symbol_scope.obj
 0001:001199c0       _get_data_info_helper      1011a9c0 f   sfc_debugmsvc80:sfdb_symbol_scope.obj
 0001:00119a40       _sf_debug_ss_get_data_info 1011aa40 f   sfc_debugmsvc80:sfdb_symbol_scope.obj
 0001:00119bf0       _sf_debug_select_mex_function 1011abf0 f   sfc_debugmsvc80:sfdb_symbol_scope.obj
 0001:00119c20       _sf_debug_is_dyn_matrix_initialized 1011ac20 f   sfc_debugmsvc80:sfdb_symbol_scope.obj
 0001:00119c40       _sf_debug_ss_set_data_value_try 1011ac40 f   sfc_debugmsvc80:sfdb_symbol_scope.obj
 0001:00119d70       _sf_debug_ss_get_data_value 1011ad70 f   sfc_debugmsvc80:sfdb_symbol_scope.obj
 0001:0011a2a0       _sf_debug_ss_data_bytes_string 1011b2a0 f   sfc_debugmsvc80:sfdb_symbol_scope.obj
 0001:0011a310       _sf_debug_ss_data_class_string 1011b310 f   sfc_debugmsvc80:sfdb_symbol_scope.obj
 0001:0011a660       _sf_debug_ss_data_size_string 1011b660 f   sfc_debugmsvc80:sfdb_symbol_scope.obj
 0001:0011a720       _sf_debug_ss_data_create_data_info_struct 1011b720 f   sfc_debugmsvc80:sfdb_symbol_scope.obj
 0001:0011a980       _sf_debug_ss_data_create_name_value_pair 1011b980 f   sfc_debugmsvc80:sfdb_symbol_scope.obj
 0001:0011a9e0       _sf_debug_ss_data_get_whos_info 1011b9e0 f   sfc_debugmsvc80:sfdb_symbol_scope.obj
 0001:0011aa10       _same_named_data_in_data_array 1011ba10 f   sfc_debugmsvc80:sfdb_symbol_scope.obj
 0001:0011bea0       _sf_debug_cc_terminate_chart 1011cea0 f   sfc_debugmsvc80:sfdb_coverage.obj
 0001:0011c1b0       _sf_debug_cc_terminate_instance 1011d1b0 f   sfc_debugmsvc80:sfdb_coverage.obj
 0001:0011cbe0       _sf_debug_cc_mark_object_if_needed 1011dbe0 f   sfc_debugmsvc80:sfdb_coverage.obj
 0001:0011d360       _sf_debug_bm_initialize_eml 1011e360 f   sfc_debugmsvc80:sfdb_breakpoints.obj
 0001:0011e330       _sf_debug_bm_map_debug_tag_to_breakpoint_tag 1011f330 f   sfc_debugmsvc80:sfdb_breakpoints.obj
 0001:0011e3d0       _sf_debug_bm_is_a_eml_breakpoint_impl 1011f3d0 f   sfc_debugmsvc80:sfdb_breakpoints.obj
 0001:0011fa30       _sf_debug_sc_push_on_error_stack 10120a30 f   sfc_debugmsvc80:sfdb_state_consistency.obj
 0001:0011fb30       _sf_debug_sc_reset_error_stack 10120b30 f   sfc_debugmsvc80:sfdb_state_consistency.obj
 0001:0011fc80       _sf_debug_sc_is_state_inconsistent 10120c80 f   sfc_debugmsvc80:sfdb_state_consistency.obj
 0001:0011fea0       _sf_debug_sc_fill_consistency_info 10120ea0 f   sfc_debugmsvc80:sfdb_state_consistency.obj
 0001:00120330       _void_assertion_fcn        10121330 f   sfc_debugmsvc80:sfdb_call_stack.obj
 0001:00120810       _sf_debug_tm_fill_local_trace 10121810 f   sfc_debugmsvc80:sfdb_call_stack.obj
 0001:00120c90       _sf_debug_cd_terminate_instance 10121c90 f   sfc_debugmsvc80:sfdb_cycle_detection.obj
 0001:00120cf0       _sf_debug_cd_free_checksum_stack 10121cf0 f   sfc_debugmsvc80:sfdb_cycle_detection.obj
 0001:00120d20       _sf_debug_cd_reset_pack_strings 10121d20 f   sfc_debugmsvc80:sfdb_cycle_detection.obj
 0001:00121360       _md5file_clear             10122360 f   sfc_debugmsvc80:ckmd5.obj
 0001:00121390       _Encode                    10122390 f   sfc_debugmsvc80:ckmd5.obj
 0001:001213d0       _Decode                    101223d0 f   sfc_debugmsvc80:ckmd5.obj
 0001:00121450       _MD5Transform              10122450 f   sfc_debugmsvc80:ckmd5.obj
 0001:00121b10       _md5file_addn              10122b10 f   sfc_debugmsvc80:ckmd5.obj
 0001:00121bc0       _md5file_hash              10122bc0 f   sfc_debugmsvc80:ckmd5.obj
 0001:001220f7       _pre_c_init                101230f7 f   MSVCRT:crtdll.obj
 0001:0012234f       ___DllMainCRTStartup       1012334f f   MSVCRT:crtdll.obj
